 rt

 Timestamp is 33dd0f5b (Mon Jul 28 14:30:03 1997)

 Preferred load address is 11000000

 Start         Length     Name                   Class
 0001:00000000 000db3deH .text                   CODE
 0002:00000000 00000af0H .rdata                  DATA
 0002:00000af0 0000306dH .edata                  DATA
 0003:00000000 00000004H .CRT$XCA                DATA
 0003:00000004 00000004H .CRT$XCZ                DATA
 0003:00000008 00000004H .CRT$XIA                DATA
 0003:0000000c 00000004H .CRT$XIZ                DATA
 0003:00000010 0000e3bfH .data                   DATA
 0003:0000e3d0 0002816cH .bss                    DATA
 0004:00000000 000000c8H .idata$2                DATA
 0004:000000c8 00000014H .idata$3                DATA
 0004:000000dc 000006dcH .idata$4                DATA
 0004:000007b8 000006dcH .idata$5                DATA
 0004:00000e94 000017d4H .idata$6                DATA
 0005:00000000 00000058H .rsrc$01                DATA
 0005:00000060 00000370H .rsrc$02                DATA

  Address         Publics by Value              Rva+Base   Lib:Object

 0001:00000000       _cal                       11001000 f cal.obj
 0001:0000002b       _cal_opt                   1100102b f cal.obj
 0001:00001760       _cal_reverse               11002760 f cal.obj
 0001:00001800       _calculator                11002800 f calc.obj
 0001:00004600       _combobox_msg@16           11005600 f control.obj
 0001:00004abf       _redrawn_by_Windows        11005abf f control.obj
 0001:00004aee       _subedit_msg@16            11005aee f control.obj
 0001:00004be0       _datacollect               11005be0 f datacoll.obj
 0001:00006aae       _fld_boxtype               11007aae f datacoll.obj
 0001:00006c4e       _drawfldbox                11007c4e f datacoll.obj
 0001:00006d30       _drawfield                 11007d30 f datacoll.obj
 0001:00006f09       _makefieldtext             11007f09 f datacoll.obj
 0001:00007379       _setfont                   11008379 f datacoll.obj
 0001:000073b8       _dovalidation              110083b8 f datacoll.obj
 0001:000075fa       _doduringentry             110085fa f datacoll.obj
 0001:0000775d       _do_vals                   1100875d f datacoll.obj
 0001:00007b0e       _copy_pick                 11008b0e f datacoll.obj
 0001:00008195       _dc_set_te_text            11009195 f datacoll.obj
 0001:000083dc       _dc_do_editted_te          110093dc f datacoll.obj
 0001:0000a4e7       _field_focus               1100b4e7 f datacoll.obj
 0001:0000ab70       _fp_from_dlp               1100bb70 f datacoll.obj
 0001:0000abc7       _copy_from_combobox        1100bbc7 f datacoll.obj
 0001:0000ae60       _debug_dl                  1100be60 f debug.obj
 0001:0000ae70       _demo_mode                 1100be70 f demo.obj
 0001:0000b0f0       _rterrmsg                  1100c0f0 f errorbox.obj
 0001:0000bb72       _rterrorbox                1100cb72 f errorbox.obj
 0001:0000bc53       _unshow_err                1100cc53 f errorbox.obj
 0001:0000bd46       _unshow_fyi                1100cd46 f errorbox.obj
 0001:0000be39       _unshow_efmsg              1100ce39 f errorbox.obj
 0001:0000bff4       _rterrmsg_via_list         1100cff4 f errorbox.obj
 0001:0000c441       _msgbox                    1100d441 f errorbox.obj
 0001:0000c507       _ofb_msgbox                1100d507 f errorbox.obj
 0001:0000c530       _rtAllocCDSEnv             1100d530 f execcds.obj
 0001:0000c581       _exec_cds                  1100d581 f execcds.obj
 0001:0001025c       _transform_cdserror        1101125c f execcds.obj
 0001:00010414       _cdsretry                  11011414 f execcds.obj
 0001:000105e7       _catastrophe               110115e7 f execcds.obj
 0001:000115e0       _exec_comm                 110125e0 f execcomm.obj
 0001:000128db       _comm_get_pcl_ptr          110138db f execcomm.obj
 0001:00012b20       _exec_crt                  11013b20 f execcrt.obj
 0001:000135e0       _exec_dde                  110145e0 f execdde.obj
 0001:00014a29       _DdeCallback@32            11015a29 f execdde.obj
 0001:00015465       _ProcessDDEInit@4          11016465 f execdde.obj
 0001:000154b0       _ProcessDDEConnect@12      110164b0 f execdde.obj
 0001:000156e1       _ProcessDDEAdvise@16       110166e1 f execdde.obj
 0001:000157f3       _ProcessDDEServer@8        110167f3 f execdde.obj
 0001:000159e2       _ProcessDDEConfig@8        110169e2 f execdde.obj
 0001:00015bc3       _ProcessDDESendData@20     11016bc3 f execdde.obj
 0001:00015d58       _ProcessDDERequest@16      11016d58 f execdde.obj
 0001:00015f2a       _ProcessDDEPoke@20         11016f2a f execdde.obj
 0001:00015fcc       _ProcessDDEExecute@16      11016fcc f execdde.obj
 0001:0001604c       _ProcessDDEDisconnect@4    1101704c f execdde.obj
 0001:00016073       _ProcessDDEAbandonTrans@8  11017073 f execdde.obj
 0001:00016098       _ProcessDDEConversation@8  11017098 f execdde.obj
 0001:000160bd       _ProcessDDEUninit@0        110170bd f execdde.obj
 0001:00016124       _ProcessDDEQueryNextServ@8 11017124 f execdde.obj
 0001:00016172       _IsServiceSupported        11017172 f execdde.obj
 0001:000161dd       _IsTopicSupported          110171dd f execdde.obj
 0001:00016422       _GetServiceTopicNames      11017422 f execdde.obj
 0001:000164ef       _FillPCLClientCallBackParams 110174ef f execdde.obj
 0001:0001655e       _FillPCLServerCallBackParams 1101755e f execdde.obj
 0001:000165b7       _mre_nofunc                110175b7 f execdde.obj
 0001:000165ea       _mre_nofld                 110175ea f execdde.obj
 0001:00016604       _mre_nohconv               11017604 f execdde.obj
 0001:00016620       _exec_declare              11017620 f execdll.obj
 0001:0001683a       _exec_dll                  1101783a f execdll.obj
 0001:0001759c       _DLL_FreeLibs              1101859c f execdll.obj
 0001:00017680       _exec_draw                 11018680 f execdraw.obj
 0001:0001aa40       _exec_print                1101ba40 f execprt.obj
 0001:0001cbe2       _print_package             1101dbe2 f execprt.obj
 0001:0001cf88       _printer_open              1101df88 f execprt.obj
 0001:0001d47d       _printabort@8              1101e47d f execprt.obj
 0001:0001dc20       _GetSizeFromWidthHeight    1101ec20 f execprt.obj
 0001:0001dcfa       _GetWidthHeightFromSize    1101ecfa f execprt.obj
 0001:0001dd68       _printer_close             1101ed68 f execprt.obj
 0001:0001e695       _printformatting           1101f695 f execprt.obj
 0001:0001eaab       _addprtbuff                1101faab f execprt.obj
 0001:0001eb47       _rt_nop_verb_msg           1101fb47 f execprt.obj
 0001:0001ef3a       _PAIparse                  1101ff3a f execprt.obj
 0001:0001f6c9       _SelectPrintFont           110206c9 f execprt.obj
 0001:0001fbd9       _GetPrintDC                11020bd9 f execprt.obj
 0001:0001fbee       _PrtDrawIcon               11020bee f execprt.obj
 0001:000200c8       _PrtGetBitmapSize          110210c8 f execprt.obj
 0001:000200f6       _PrtDrawBitmap             110210f6 f execprt.obj
 0001:0002060e       _logrtwaitchks             1102160e f execprt.obj
 0001:0002065b       _printdebug                1102165b f execprt.obj
 0001:000206da       _LogFile                   110216da f execprt.obj
 0001:000206f0       _dobinop                   110216f0 f expr.obj
 0001:000213b1       _exprabort                 110223b1 f expr.obj
 0001:000213f6       _determinetype             110223f6 f expr.obj
 0001:00021714       _douniop                   11022714 f expr.obj
 0001:000219fb       _mystrcmp                  110229fb f expr.obj
 0001:00021ba0       _undup_fld_list            11022ba0 f fldsubs.obj
 0001:00021bb0       _sav_fld_list              11022bb0 f fldsubs.obj
 0001:00021c02       _sav_fld_storage           11022c02 f fldsubs.obj
 0001:00021c67       _clr_fld_list              11022c67 f fldsubs.obj
 0001:00021d10       _clr_fld_dlist             11022d10 f fldsubs.obj
 0001:00021e3a       _clr_fld_explicit          11022e3a f fldsubs.obj
 0001:00021e81       _dup_fld_list              11022e81 f fldsubs.obj
 0001:00021efb       _dup_fld_explicit          11022efb f fldsubs.obj
 0001:00021f1e       _dup_fld_storage           11022f1e f fldsubs.obj
 0001:00021f8d       _add_field_rec             11022f8d f fldsubs.obj
 0001:000220a0       _help                      110230a0 f help.obj
 0001:00022390       _do_init_statement         11023390 f initstmt.obj
 0001:00023a66       _rt_output_timers          11024a66 f initstmt.obj
 0001:00023b70       _rt_stop_timer             11024b70 f initstmt.obj
 0001:00023c39       _rt_start_timer            11024c39 f initstmt.obj
 0001:00023c54       _dump_init_settings        11024c54 f initstmt.obj
 0001:000245b0       _initwinsock               110255b0 f io.obj
 0001:0002460e       _spy_on                    1102560e f io.obj
 0001:00024a22       _spy_off                   11025a22 f io.obj
 0001:00024b6d       _rtserverlisten            11025b6d f io.obj
 0001:00024c37       _killspyserver             11025c37 f io.obj
 0001:00024c77       _spylistendone             11025c77 f io.obj
 0001:00024d39       _spyreaddone               11025d39 f io.obj
 0001:00024eb1       _spyrcv1                   11025eb1 f io.obj
 0001:00024f69       _spyrcv2                   11025f69 f io.obj
 0001:00024f80       _spysend1                  11025f80 f io.obj
 0001:0002501b       _spysend2                  1102601b f io.obj
 0001:00025092       _getuserkey                11026092 f io.obj
 0001:000253c1       _invoke_localprint         110263c1 f io.obj
 0001:000253f9       _ungetuserkey              110263f9 f io.obj
 0001:00025469       _clear_screen              11026469 f io.obj
 0001:0002566d       _status_update             1102666d f io.obj
 0001:00025ea3       _get_string                11026ea3 f io.obj
 0001:00026015       _put_title                 11027015 f io.obj
 0001:00026299       _show_cursor               11027299 f io.obj
 0001:0002643c       _show_cursor_full          1102743c f io.obj
 0001:0002653a       _hide_cursor               1102753a f io.obj
 0001:00026705       _save_hide_cursor          11027705 f io.obj
 0001:00026753       _restore_show_cursor       11027753 f io.obj
 0001:00026788       _copykeys                  11027788 f io.obj
 0001:0002679a       _badinput                  1102779a f io.obj
 0001:000267b9       _warningbell               110277b9 f io.obj
 0001:000267d8       _errorbell                 110277d8 f io.obj
 0001:000267f7       _copyvideo                 110277f7 f io.obj
 0001:00026809       _copyoff                   11027809 f io.obj
 0001:00026814       _xlatefkey                 11027814 f io.obj
 0001:0002691c       _rt_find_keyval            1102791c f io.obj
 0001:00026976       _pcl_exec_error            11027976 f io.obj
 0001:00026de3       _appl_alt_key              11027de3 f io.obj
 0001:00026ee8       _do_alt_key                11027ee8 f io.obj
 0001:000270c7       _getfromkeybuff            110280c7 f io.obj
 0001:00027151       _rt_get_nextkey            11028151 f io.obj
 0001:00027191       _addtokeybuff              11028191 f io.obj
 0001:00027212       _purge_typeahead           11028212 f io.obj
 0001:00027249       _display_internal_error    11028249 f io.obj
 0001:00027275       _xlate_filename            11028275 f io.obj
 0001:00027460       _localprint                11028460 f localprt.obj
 0001:00028bc0       _manual                    11029bc0 f manual.obj
 0001:0002a360       _man_init_fields           1102b360 f manual.obj
 0001:0002e590       _menu                      1102f590 f menus.obj
 0001:0002fe42       _pmenu                     11030e42 f menus.obj
 0001:00030939       _do_winmenu                11031939 f menus.obj
 0001:0003098a       _rt_listexec               1103198a f menus.obj
 0001:00030fb0       _grayrect                  11031fb0 f mouse.obj
 0001:000310dd       _ScaleRSx                  110320dd f mouse.obj
 0001:00031120       _ScaleRS                   11032120 f mouse.obj
 0001:00031171       _rt_mouse_events           11032171 f mouse.obj
 0001:00031e5b       _drawcheckbox              11032e5b f mouse.obj
 0001:00031f26       _drawradiobutton           11032f26 f mouse.obj
 0001:00031fe5       _drawTEtext                11032fe5 f mouse.obj
 0001:000321a4       _drawTEfield               110331a4 f mouse.obj
 0001:000323ed       _drawpushbutton            110333ed f mouse.obj
 0001:00032404       _drawreliefbutton          11033404 f mouse.obj
 0001:00032459       _drawiconbutton            11033459 f mouse.obj
 0001:0003249a       _drawvoidbutton            1103349a f mouse.obj
 0001:000324da       _redrawcontrol             110334da f mouse.obj
 0001:00032794       _mouse_scroll              11033794 f mouse.obj
 0001:0003289c       _add_alt_key               1103389c f mouse.obj
 0001:00032958       _render_relief             11033958 f mouse.obj
 0001:00032978       _render_control            11033978 f mouse.obj
 0001:00033afa       _alter_button              11034afa f mouse.obj
 0001:0003402f       _inform_TE_change          1103502f f mouse.obj
 0001:000340f0       _redraw_ctrl               110350f0 f mouse.obj
 0001:0003433f       _do_alter_ctrl             1103533f f mouse.obj
 0001:000348b7       _allcontrols               110358b7 f mouse.obj
 0001:000349ed       _calc_control_size         110359ed f mouse.obj
 0001:00035090       _multidisplay              11036090 f multirec.obj
 0001:00035b96       _getmember                 11036b96 f multirec.obj
 0001:000365e0       _rtclwait                  110375e0 f nwcds.obj
 0001:00036850       _pcl                       11037850 f pcl.obj
 0001:0003e7be       _rt_get_obj_nums           1103f7be f pcl.obj
 0001:0003e998       _rt_get_dd_ptr             1103f998 f pcl.obj
 0001:0003ecc0       _async_pcl                 1103fcc0 f pcl.obj
 0001:0003edd0       _prefill                   1103fdd0 f pclsubs.obj
 0001:0003eef9       _navigateback              1103fef9 f pclsubs.obj
 0001:0003f02c       _dorefresh                 1104002c f pclsubs.obj
 0001:0003f398       _refreshfield              11040398 f pclsubs.obj
 0001:0003f666       _keydef_clear              11040666 f pclsubs.obj
 0001:0003f6b6       _keydef_push               110406b6 f pclsubs.obj
 0001:0003f72c       _keydef_pop                1104072c f pclsubs.obj
 0001:0003f7f2       _keydef_reset              110407f2 f pclsubs.obj
 0001:0003f91f       _plug_comm_ptr             1104091f f pclsubs.obj
 0001:0003fa0f       _plug_at_comm_ptr          11040a0f f pclsubs.obj
 0001:0003faff       _start_interval            11040aff f pclsubs.obj
 0001:0003fb2e       _stop_interval             11040b2e f pclsubs.obj
 0001:0003fbbc       _do_dprint                 11040bbc f pclsubs.obj
 0001:00040214       _do_fprint                 11041214 f pclsubs.obj
 0001:000407bf       _setup_sysinfo             110417bf f pclsubs.obj
 0001:000407fb       _pcl_doreset               110417fb f pclsubs.obj
 0001:000408c8       _make_tran                 110418c8 f pclsubs.obj
 0001:00040aeb       _remove_tran               11041aeb f pclsubs.obj
 0001:00040cd5       _rt_list_init              11041cd5 f pclsubs.obj
 0001:00040d54       _make_stringbuff           11041d54 f pclsubs.obj
 0001:00040d87       _purge_all_screens         11041d87 f pclsubs.obj
 0001:00040e72       _stack_clear               11041e72 f pclsubs.obj
 0001:00040f5f       _stack_push                11041f5f f pclsubs.obj
 0001:00041029       _stack_pop                 11042029 f pclsubs.obj
 0001:000410e6       _stack_reset               110420e6 f pclsubs.obj
 0001:000413d3       _lookupstmt                110423d3 f pclsubs.obj
 0001:000415c7       _tran_start                110425c7 f pclsubs.obj
 0001:0004169d       _tran_finish               1104269d f pclsubs.obj
 0001:00041828       _tran_reset_all            11042828 f pclsubs.obj
 0001:00041872       _rt_redraw                 11042872 f pclsubs.obj
 0001:00041e7a       _rt_dl_free                11042e7a f pclsubs.obj
 0001:00041ef9       _do_settimer               11042ef9 f pclsubs.obj
 0001:00042047       _check_timers              11043047 f pclsubs.obj
 0001:0004226b       _reset_timers              1104326b f pclsubs.obj
 0001:00042562       _rt_comboverify            11043562 f pclsubs.obj
 0001:0004293c       _rt_combofield             1104393c f pclsubs.obj
 0001:00042fdd       _rt_display                11043fdd f pclsubs.obj
 0001:00043111       _rt_undisplay              11044111 f pclsubs.obj
 0001:00043251       _rt_collect                11044251 f pclsubs.obj
 0001:0004331c       _rt_combopick              1104431c f pclsubs.obj
 0001:00043743       _make_mlfield              11044743 f pclsubs.obj
 0001:00043830       _show_picklist             11044830 f picklist.obj
 0001:00043a83       _PickScrollProc@16         11044a83 f picklist.obj
 0001:00043c06       _remove_picklist           11044c06 f picklist.obj
 0001:00043e69       _do_picklist               11044e69 f picklist.obj
 0001:00044004       _display_picklist          11045004 f picklist.obj
 0001:00044c08       _val_picklist              11045c08 f picklist.obj
 0001:00044f3b       _plproc                    11045f3b f picklist.obj
 0001:00046786       _pl_drawcontrol            11047786 f picklist.obj
 0001:00046940       _callout_key_filter        11047940 f picklist.obj
 0001:00046b8a       _pl_reverse                11047b8a f picklist.obj
 0001:00046dcc       _pl_drawstring             11047dcc f picklist.obj
 0001:00046f2e       _ctl_under_pick            11047f2e f picklist.obj
 0001:00047030       _ramalloc                  11048030 f ramalloc.obj
 0001:000472c0       _rt                        110482c0 f rt.obj
 0001:000475a9       _post_cleanup              110485a9 f rt.obj
 0001:00047707       _titlescreen               11048707 f rt.obj
 0001:00047a67       _initialize                11048a67 f rt.obj
 0001:00048586       _reset_exit                11049586 f rt.obj
 0001:00048609       _math_error                11049609 f rt.obj
 0001:0004863d       _init_field                1104963d f rt.obj
 0001:00048696       _setup_keyboard_input      11049696 f rt.obj
 0001:000486a1       _setup_common_fields       110496a1 f rt.obj
 0001:000487d7       _setup_hardware_type       110497d7 f rt.obj
 0001:0004883f       _init_errfyi               1104983f f rt.obj
 0001:0004890a       _required_field            1104990a f rt.obj
 0001:000489c3       _onechar_setup             110499c3 f rt.obj
 0001:000489ce       _onechar_terminate         110499ce f rt.obj
 0001:000489d9       _rt_set_palette            110499d9 f rt.obj
 0001:00048a2c       _never_call_this           11049a2c f rt.obj
 0001:00049105       _ToolsInit                 1104a105 f rt.obj
 0001:00049375       _ToolsReInit               1104a375 f rt.obj
 0001:0004941c       _ToolsClose                1104a41c f rt.obj
 0001:00049431       _ToolsOpenRTwindow         1104a431 f rt.obj
 0001:00049567       _ToolsCloseRTwindow        1104a567 f rt.obj
 0001:00049592       _ToolsInitColor            1104a592 f rt.obj
 0001:0004970b       _MosaicOA                  1104a70b f rt.obj
 0001:00049870       _recordcount               1104a870 f rtable.obj
 0001:000498ce       _setrecord                 1104a8ce f rtable.obj
 0001:00049983       _appendfields              1104a983 f rtable.obj
 0001:0004a14f       _rtaddfield                1104b14f f rtable.obj
 0001:0004a2ba       _rtaddarray                1104b2ba f rtable.obj
 0001:0004a525       _extractfields             1104b525 f rtable.obj
 0001:0004aaa4       _rtgetallfields            1104baa4 f rtable.obj
 0001:0004ac4c       _rtgetfield                1104bc4c f rtable.obj
 0001:0004af3b       _rtgetarray                1104bf3b f rtable.obj
 0001:0004b1a2       _fieldcriteria             1104c1a2 f rtable.obj
 0001:0004b231       _listcriteria              1104c231 f rtable.obj
 0001:0004bbc5       _buildcriteria             1104cbc5 f rtable.obj
 0001:0004c540       _rtdereference             1104d540 f rtable.obj
 0001:0004c583       _rt_get_ail                1104d583 f rtable.obj
 0001:0004c6e0       _DllMain@12                1104d6e0 f rtdll.obj
 0001:0004c770       __lstrMyCmp                1104d770 f rtfonts.obj
 0001:0004c7e1       _rt_drawtext               1104d7e1 f rtfonts.obj
 0001:0004d005       _point2pix                 1104e005 f rtfonts.obj
 0001:0004d034       _fontfromcache             1104e034 f rtfonts.obj
 0001:0004d0dd       _fonttocache               1104e0dd f rtfonts.obj
 0001:0004d1a9       _fontdelcache              1104e1a9 f rtfonts.obj
 0001:0004d205       _selectfont                1104e205 f rtfonts.obj
 0001:0004dbba       _get_font_handle           1104ebba f rtfonts.obj
 0001:0004dbcf       _getfont                   1104ebcf f rtfonts.obj
 0001:0004dc21       _getunscaledfont           1104ec21 f rtfonts.obj
 0001:0004dc44       _scaletext                 1104ec44 f rtfonts.obj
 0001:0004dca9       _addiscfonts               1104eca9 f rtfonts.obj
 0001:0004dd41       _InitFontStuff             1104ed41 f rtfonts.obj
 0001:0004ddb1       _TermFonts                 1104edb1 f rtfonts.obj
 0001:0004de20       _openwindow                1104ee20 f rtwindow.obj
 0001:0004def3       _InitApplication           1104eef3 f rtwindow.obj
 0001:0004dfc5       _InitInstance              1104efc5 f rtwindow.obj
 0001:0004e1a7       _mousemove_setcursor       1104f1a7 f rtwindow.obj
 0001:0004e1d7       _ControlProc               1104f1d7 f rtwindow.obj
 0001:0004e678       _rt_clearwindow            1104f678 f rtwindow.obj
 0001:0004e6d6       _WndProc@16                1104f6d6 f rtwindow.obj
 0001:0004f4b8       _do_PCLredraw              110504b8 f rtwindow.obj
 0001:0004f778       _winnt_keycode             11050778 f rtwindow.obj
 0001:0004fd60       _Bell                      11050d60 f rtwindow.obj
 0001:0004fd73       _InitColor                 11050d73 f rtwindow.obj
 0001:0004fe46       _SetRGBColor               11050e46 f rtwindow.obj
 0001:0004ff43       _getdc                     11050f43 f rtwindow.obj
 0001:0004ff80       _setdc                     11050f80 f rtwindow.obj
 0001:0004ffab       _releasedc                 11050fab f rtwindow.obj
 0001:0004ffed       _timerproc                 11050fed f rtwindow.obj
 0001:000503f9       _window_init               110513f9 f rtwindow.obj
 0001:0005046a       _set_physicalsize          1105146a f rtwindow.obj
 0001:000504d9       _set_maxsize               110514d9 f rtwindow.obj
 0001:0005099a       _check_maxsize             1105199a f rtwindow.obj
 0001:00050b3a       _rtwdw_resize              11051b3a f rtwindow.obj
 0001:00050ee5       _ctrl_is_active            11051ee5 f rtwindow.obj
 0001:00050fca       _fieldfromscrap            11051fca f rtwindow.obj
 0001:000510fb       _fieldtoscrap              110520fb f rtwindow.obj
 0001:0005125d       _scrap_remove_cr           1105225d f rtwindow.obj
 0001:000512be       _scrap_add_cr              110522be f rtwindow.obj
 0001:00051360       _GetPersonality            11052360 f rtwindow.obj
 0001:00051b6b       _GetColorsFromINIFile      11052b6b f rtwindow.obj
 0001:00051f95       _getSysPal                 11052f95 f rtwindow.obj
 0001:000520c3       _getSystemColors           110530c3 f rtwindow.obj
 0001:00052204       _KeyboardProc@12           11053204 f rtwindow.obj
 0001:00052278       _gsp_event                 11053278 f rtwindow.obj
 0001:0005238a       _get_hwnd_4iba             1105338a f rtwindow.obj
 0001:0005239f       _get_RTs_wndprocaddr       1105339f f rtwindow.obj
 0001:000523b4       _ToolsClearRTsGlobals      110533b4 f rtwindow.obj
 0001:00052490       _getkey                    11053490 f single.obj
 0001:00052620       _rt_wait                   11053620 f synch.obj
 0001:000528bc       _t_waitcompletion@16       110538bc f synch.obj
 0001:000528e8       _t_reset@16                110538e8 f synch.obj
 0001:00052921       _t_key@16                  11053921 f synch.obj
 0001:0005295a       _rt_signal                 1105395a f synch.obj
 0001:00052980       _TEActivate                11053980 f textedit.obj
 0001:000529d4       _TEDeactivate              110539d4 f textedit.obj
 0001:00052a3a       _TESetSelect               11053a3a f textedit.obj
 0001:00052a7f       _TEGetSelect               11053a7f f textedit.obj
 0001:00052ae0       _TEGetText                 11053ae0 f textedit.obj
 0001:00052b56       _TEAvailable               11053b56 f textedit.obj
 0001:00052c75       _TECtrl2window             11053c75 f textedit.obj
 0001:00052ce9       _TEProc@16                 11053ce9 f textedit.obj
 0001:00053447       _TESelView                 11054447 f textedit.obj
 0001:00053473       _TEAutoWrap                11054473 f textedit.obj
 0001:0005347e       _TESetJust                 1105447e f textedit.obj
 0001:00053489       _TELeading                 11054489 f textedit.obj
 0001:00053494       _TEKey                     11054494 f textedit.obj
 0001:000537a6       _TEActivated               110547a6 f textedit.obj
 0001:000537dc       _TEDelete                  110547dc f textedit.obj
 0001:0005381b       _TECut                     1105481b f textedit.obj
 0001:0005385f       _TECopy                    1105485f f textedit.obj
 0001:000538a3       _TEPaste                   110548a3 f textedit.obj
 0001:000538f4       _TEUpdate                  110548f4 f textedit.obj
 0001:000539b7       _TENew                     110549b7 f textedit.obj
 0001:00053e45       _TEDispose                 11054e45 f textedit.obj
 0001:00053eab       _TESetText                 11054eab f textedit.obj
 0001:00053f1d       _GetStretchFieldInfo       11054f1d f textedit.obj
 0001:00053ff2       _TEVisLine                 11054ff2 f textedit.obj
 0001:0005426d       _TEClick                   1105526d f textedit.obj
 0001:0005441b       _TESetColor                1105541b f textedit.obj
 0001:000545a7       _TEButtonUp                110555a7 f textedit.obj
 0001:00054619       _TEPasteSetup              11055619 f textedit.obj
 0001:000548e9       _TEGetPasteString          110558e9 f textedit.obj
 0001:00054919       _TEChange                  11055919 f textedit.obj
 0001:000549e3       _TECopytoClip              110559e3 f textedit.obj
 0001:00054aa0       _LocalTextWidth            11055aa0 f windoman.obj
 0001:00054b31       _LocalCharWidth            11055b31 f windoman.obj
 0001:00054b5b       _StringWidth               11055b5b f windoman.obj
 0001:00054b9c       _LocalStringWidth          11055b9c f windoman.obj
 0001:00054bd1       _LocalTextWidHit           11055bd1 f windoman.obj
 0001:00054cf9       _BlockMove                 11055cf9 f windoman.obj
 0001:00054d18       _HiWord                    11055d18 f windoman.obj
 0001:00054d2e       _LoWord                    11055d2e f windoman.obj
 0001:00054d46       _ClipRectSect              11055d46 f windoman.obj
 0001:00054d86       _SetClip                   11055d86 f windoman.obj
 0001:00054dca       _LocalGetClip              11055dca f windoman.obj
 0001:00054e4a       _ClipRect                  11055e4a f windoman.obj
 0001:00054f4e       _DrawControl               11055f4e f windoman.obj
 0001:00054f63       _StringLen                 11055f63 f windoman.obj
 0001:00054f7f       _ValidRect                 11055f7f f windoman.obj
 0001:00054ff9       _SetWTitle                 11055ff9 f windoman.obj
 0001:00055012       _PenMode                   11056012 f windoman.obj
 0001:00055026       _PenSize                   11056026 f windoman.obj
 0001:00055045       _PenPat                    11056045 f windoman.obj
 0001:0005505a       _PenNormal                 1105605a f windoman.obj
 0001:00055085       _ShowControl               11056085 f windoman.obj
 0001:000550c8       _HideControl               110560c8 f windoman.obj
 0001:000550eb       _HideControlNoInval        110560eb f windoman.obj
 0001:000550f6       _HiliteControl             110560f6 f windoman.obj
 0001:000551e7       _GetCtlValue               110561e7 f windoman.obj
 0001:00055273       _SetCtlValue               11056273 f windoman.obj
 0001:00055334       _InvalRect                 11056334 f windoman.obj
 0001:000553b0       _SectRect                  110563b0 f windoman.obj
 0001:000553d2       _TextFont                  110563d2 f windoman.obj
 0001:000553e7       _TextFace                  110563e7 f windoman.obj
 0001:000553fc       _TextSize                  110563fc f windoman.obj
 0001:00055411       _TextMode                  11056411 f windoman.obj
 0001:00055426       _EraseRect                 11056426 f windoman.obj
 0001:00055493       _ScrollRect                11056493 f windoman.obj
 0001:00055517       _ForeColor                 11056517 f windoman.obj
 0001:00055569       _BackColor                 11056569 f windoman.obj
 0001:000555bb       _IsCtlActive               110565bb f windoman.obj
 0001:000555ee       _PackBits                  110565ee f windoman.obj
 0001:000557d5       _UnpackBits                110567d5 f windoman.obj
 0001:00055910       _winmenu                   11056910 f winmenu.obj
 0001:00056ede       _append_pdm                11057ede f winmenu.obj
 0001:000572bf       _delete_pdmenu             110582bf f winmenu.obj
 0001:0005739d       _delete_pdm                1105839d f winmenu.obj
 0001:00057586       _winmenu_action            11058586 f winmenu.obj
 0001:00057816       _winmenu_keyaction         11058816 f winmenu.obj
 0001:00057ae4       _PDM_find_by_hpdmenu       11058ae4 f winmenu.obj
 0001:00057eac       _set_hmenu                 11058eac f winmenu.obj
 0001:00057ed2       _pdm_init                  11058ed2 f winmenu.obj
 0001:00057f29       _pdm_exit                  11058f29 f winmenu.obj
 0001:0005802d       _winmenu_menu_key          1105902d f winmenu.obj
 0001:00058226       _DdeGetLastError@4         11059226 f user32:USER32.dll
 0001:0005822c       _DdeGetData@16             1105922c f user32:USER32.dll
 0001:00058232       _DdeQueryStringA@20        11059232 f user32:USER32.dll
 0001:00058238       _DdeFreeDataHandle@4       11059238 f user32:USER32.dll
 0001:0005823e       _DdeInitializeA@16         1105923e f user32:USER32.dll
 0001:00058244       _DdeFreeStringHandle@8     11059244 f user32:USER32.dll
 0001:0005824a       _DdeConnectList@20         1105924a f user32:USER32.dll
 0001:00058250       _DdeConnect@16             11059250 f user32:USER32.dll
 0001:00058256       _DdeCreateStringHandleA@12 11059256 f user32:USER32.dll
 0001:0005825c       _DdeClientTransaction@32   1105925c f user32:USER32.dll
 0001:00058262       _DdeNameService@16         11059262 f user32:USER32.dll
 0001:00058268       _DdePostAdvise@12          11059268 f user32:USER32.dll
 0001:0005826e       _DdeCreateDataHandle@28    1105926e f user32:USER32.dll
 0001:00058274       _DdeDisconnect@4           11059274 f user32:USER32.dll
 0001:0005827a       _DdeAbandonTransaction@12  1105927a f user32:USER32.dll
 0001:00058280       _DdeEnableCallback@12      11059280 f user32:USER32.dll
 0001:00058286       _DdeUninitialize@4         11059286 f user32:USER32.dll
 0001:0005828c       _DdeQueryNextServer@8      1105928c f user32:USER32.dll
 0001:00058292       _DdeCmpStringHandles@8     11059292 f user32:USER32.dll
 0001:00058298       _DdeQueryConvInfo@12       11059298 f user32:USER32.dll
 0001:0005829e       _SetJobA@20                1105929e f winspool:WINSPOOL.DRV
 0001:000582a4       _OpenPrinterA@12           110592a4 f winspool:WINSPOOL.DRV
 0001:000582aa       _GetPrinterA@20            110592aa f winspool:WINSPOOL.DRV
 0001:000582b0       _DocumentPropertiesA@24    110592b0 f winspool:WINSPOOL.DRV
 0001:000582b6       _ClosePrinter@4            110592b6 f winspool:WINSPOOL.DRV
 0001:000582bc       _GetJobA@24                110592bc f winspool:WINSPOOL.DRV
 0001:000582c2       _EnumJobsA@32              110592c2 f winspool:WINSPOOL.DRV
 0001:000582d0       _Cds_Initial_with_ccb      110592d0 f client:clcdinit.obj
 0001:0005838d       _Cds_Initial               1105938d f client:clcdinit.obj
 0001:000583de       _Cds_Init                  110593de f client:clcdinit.obj
 0001:0005840f       _clAllocCDSEnv             1105940f f client:clcdinit.obj
 0001:00058641       _clAllocEnv                11059641 f client:clcdinit.obj
 0001:00058665       _clFreeEnv                 11059665 f client:clcdinit.obj
 0001:00058790       _reportevent               11059790 f client:clstubs.obj
 0001:00058900       _debug_event               11059900 f client:clstubs.obj
 0001:0005892a       _SetConnectOption          1105992a f client:clstubs.obj
 0001:00058959       _SetStmtOption             11059959 f client:clstubs.obj
 0001:00058988       _GetConnectOption          11059988 f client:clstubs.obj
 0001:000589b3       _GetStmtOption             110599b3 f client:clstubs.obj
 0001:000589de       _cds_select                110599de f client:clstubs.obj
 0001:00058a8e       _cds_selectnfetch          11059a8e f client:clstubs.obj
 0001:00058b67       _Cds_Select                11059b67 f client:clstubs.obj
 0001:00058bba       _Cds_SelectnFetch          11059bba f client:clstubs.obj
 0001:00058c12       _cds_join                  11059c12 f client:clstubs.obj
 0001:00058ca6       _Cds_Join                  11059ca6 f client:clstubs.obj
 0001:00058cf9       _Cds_End_Select            11059cf9 f client:clstubs.obj
 0001:00058d74       _Cds_Cancel_Scan           11059d74 f client:clstubs.obj
 0001:00058e03       _Cds_Remote_Cancel_Scan    11059e03 f client:clstubs.obj
 0001:00058e43       _Cds_Unlock                11059e43 f client:clstubs.obj
 0001:00058e8c       _Cds_Compress              11059e8c f client:clstubs.obj
 0001:00058f1f       _Cds_Delete                11059f1f f client:clstubs.obj
 0001:0005902e       _Cds_Delete_All            1105a02e f client:clstubs.obj
 0001:00059135       _cds_update                1105a135 f client:clstubs.obj
 0001:00059273       _Cds_Insert                1105a273 f client:clstubs.obj
 0001:0005929d       _Cds_Replace               1105a29d f client:clstubs.obj
 0001:000592c7       _Cds_Update_Flds           1105a2c7 f client:clstubs.obj
 0001:000592f1       _cdsBatchInsert            1105a2f1 f client:clstubs.obj
 0001:00059490       _Cds_Update_All            1105a490 f client:clstubs.obj
 0001:000595f0       _cds_fetch                 1105a5f0 f client:clstubs.obj
 0001:0005976e       _Cds_Find_First            1105a76e f client:clstubs.obj
 0001:00059794       _Cds_Find_Last             1105a794 f client:clstubs.obj
 0001:000597ba       _Cds_Find_Next             1105a7ba f client:clstubs.obj
 0001:000597e0       _Cds_Find_Prev             1105a7e0 f client:clstubs.obj
 0001:00059806       _CdsFindn                  1105a806 f client:clstubs.obj
 0001:000598ed       _Cds_Find_n                1105a8ed f client:clstubs.obj
 0001:00059913       _Cds_Project               1105a913 f client:clstubs.obj
 0001:00059983       _Cds_Fetch_Again           1105a983 f client:clstubs.obj
 0001:000599d0       _Cds_Lock_Table            1105a9d0 f client:clstubs.obj
 0001:00059b3a       _Cds_Unlock_Table          1105ab3a f client:clstubs.obj
 0001:00059b62       _Cds_Table_Size            1105ab62 f client:clstubs.obj
 0001:00059bcd       _Cds_Server_Names          1105abcd f client:clstubs.obj
 0001:00059c36       _sv_who                    1105ac36 f client:clstubs.obj
 0001:00059c7f       _Cds_Tables                1105ac7f f client:clstubs.obj
 0001:00059cc4       _cdsStop                   1105acc4 f client:clstubs.obj
 0001:00059d25       _sv_stop                   1105ad25 f client:clstubs.obj
 0001:00059dee       _open_capture              1105adee f client:clstubs.obj
 0001:00059ea0       _close_capture             1105aea0 f client:clstubs.obj
 0001:00059f52       _Cds_Files                 1105af52 f client:clstubs.obj
 0001:00059f97       _cdsync                    1105af97 f client:clstubs.obj
 0001:0005a001       _Cds_Reset_Log             1105b001 f client:clstubs.obj
 0001:0005a048       _Cds_Create_Table          1105b048 f client:clstubs.obj
 0001:0005a2f9       _Cds_Alter_Table           1105b2f9 f client:clstubs.obj
 0001:0005a3ad       _Cds_Rename_Table          1105b3ad f client:clstubs.obj
 0001:0005a510       _Cds_Copy_Table_Def        1105b510 f client:clstubs.obj
 0001:0005b540       _Cds_Drop_Table            1105c540 f client:clstubs.obj
 0001:0005b629       _Cds_Create_Index          1105c629 f client:clstubs.obj
 0001:0005b70a       _Cds_Drop_Index            1105c70a f client:clstubs.obj
 0001:0005b7e3       _Cds_Begin_Work            1105c7e3 f client:clstubs.obj
 0001:0005b836       _Cds_Commit                1105c836 f client:clstubs.obj
 0001:0005b943       _Cds_2_Phase_Commit        1105c943 f client:clstubs.obj
 0001:0005b985       _Cds_Rollback              1105c985 f client:clstubs.obj
 0001:0005bb55       _cdsnwselect               1105cb55 f client:clstubs.obj
 0001:0005bbe4       _cdsnwSelect               1105cbe4 f client:clstubs.obj
 0001:0005bc26       _cdsnwjoin                 1105cc26 f client:clstubs.obj
 0001:0005bcb3       _cdsnwJoin                 1105ccb3 f client:clstubs.obj
 0001:0005bcf1       _cdsnwEnd_Select           1105ccf1 f client:clstubs.obj
 0001:0005bd6b       _cdsnwUnlock               1105cd6b f client:clstubs.obj
 0001:0005bdc6       _cdsnwDelete               1105cdc6 f client:clstubs.obj
 0001:0005be78       _cdsnwDelete_All           1105ce78 f client:clstubs.obj
 0001:0005bf2a       _cdsnwUpdate               1105cf2a f client:clstubs.obj
 0001:0005c00e       _cdsnwInsert               1105d00e f client:clstubs.obj
 0001:0005c038       _cdsnwReplace              1105d038 f client:clstubs.obj
 0001:0005c062       _cdsnwUpdate_Flds          1105d062 f client:clstubs.obj
 0001:0005c08c       _cdsnwUpdate_All           1105d08c f client:clstubs.obj
 0001:0005c14f       _cdsnw_fetch               1105d14f f client:clstubs.obj
 0001:0005c1db       _cdsnwFind_First           1105d1db f client:clstubs.obj
 0001:0005c201       _cdsnwFind_Last            1105d201 f client:clstubs.obj
 0001:0005c227       _cdsnwFind_Next            1105d227 f client:clstubs.obj
 0001:0005c24d       _cdsnwFind_Prev            1105d24d f client:clstubs.obj
 0001:0005c273       _cdsnwFind_n               1105d273 f client:clstubs.obj
 0001:0005c2d6       _cdsnwFindn                1105d2d6 f client:clstubs.obj
 0001:0005c2fa       _cdsnw_Project             1105d2fa f client:clstubs.obj
 0001:0005c359       _become_primary            1105d359 f client:clstubs.obj
 0001:0005c740       _cdsPop                    1105d740 f client:clmultis.obj
 0001:0005c9d2       _cdsClearStack             1105d9d2 f client:clmultis.obj
 0001:0005c9f6       _cdsPush                   1105d9f6 f client:clmultis.obj
 0001:0005cc63       _no_table                  1105dc63 f client:clmultis.obj
 0001:0005cc8a       _add_to_tab_list           1105dc8a f client:clmultis.obj
 0001:0005ce08       _cltab_list                1105de08 f client:clmultis.obj
 0001:0005cf2d       _find_cltab                1105df2d f client:clmultis.obj
 0001:0005d0e3       _remove_cltab              1105e0e3 f client:clmultis.obj
 0001:0005d18e       _new_clconnect             1105e18e f client:clmultis.obj
 0001:0005d28d       _find_ccb                  1105e28d f client:clmultis.obj
 0001:0005d396       _isConnected               1105e396 f client:clmultis.obj
 0001:0005d431       _find_coordinator          1105e431 f client:clmultis.obj
 0001:0005d542       _remove_clconnect          1105e542 f client:clmultis.obj
 0001:0005d619       _close_all_clconnects      1105e619 f client:clmultis.obj
 0001:0005d69d       _close_clconnect           1105e69d f client:clmultis.obj
 0001:0005d907       _close_cds_connect         1105e907 f client:clmultis.obj
 0001:0005d94f       _find_clcontext            1105e94f f client:clmultis.obj
 0001:0005da2d       _find_clcontext_in_ccb     1105ea2d f client:clmultis.obj
 0001:0005db02       _find_clcontext_by_rptr    1105eb02 f client:clmultis.obj
 0001:0005dbb1       _remove_clcontext          1105ebb1 f client:clmultis.obj
 0001:0005dc7e       _remove_contexts_on_table  1105ec7e f client:clmultis.obj
 0001:0005dd59       _rm_tbl_clcontext          1105ed59 f client:clmultis.obj
 0001:0005dd94       _remove_clcontexts         1105ed94 f client:clmultis.obj
 0001:0005de4d       _rm_all_clcontexts         1105ee4d f client:clmultis.obj
 0001:0005de95       _get_clcontext             1105ee95 f client:clmultis.obj
 0001:0005e1cb       _get_join_context          1105f1cb f client:clmultis.obj
 0001:0005e51d       _isolate_tab_name          1105f51d f client:clmultis.obj
 0001:0005e574       _end_clluw                 1105f574 f client:clmultis.obj
 0001:0005e602       _two_phase_commit          1105f602 f client:clmultis.obj
 0001:0005e7c9       _complete_the_action       1105f7c9 f client:clmultis.obj
 0001:0005e96d       _list_clcontexts           1105f96d f client:clmultis.obj
 0001:0005ea60       _cds_errmsg                1105fa60 f client:clcdserr.obj
 0001:0005ea7a       _cdsErrMsg                 1105fa7a f client:clcdserr.obj
 0001:0005eac7       _CdsErrNo                  1105fac7 f client:clcdserr.obj
 0001:0005eb10       _intFromErrMsg             1105fb10 f client:clcdserr.obj
 0001:0005ec33       _int_from_errmsg           1105fc33 f client:clcdserr.obj
 0001:0005ed2a       _clseterr                  1105fd2a f client:clcdserr.obj
 0001:0005ee35       _clsetswerr                1105fe35 f client:clcdserr.obj
 0001:0005eed0       _clrun                     1105fed0 f client:clrun.obj
 0001:0005f570       _clnwrun                   11060570 f client:clrun.obj
 0001:0005f5ad       _clwait                    110605ad f client:clrun.obj
 0001:0005f8f0       _clUnregisterClass         110608f0 f client:clinit.obj
 0001:0005f92d       _clwindow                  1106092d f client:clinit.obj
 0001:0005fba3       _cds_udp_port              11060ba3 f client:clinit.obj
 0001:0005fdf8       _clinit_inner              11060df8 f client:clinit.obj
 0001:00060639       _cdsInit                   11061639 f client:clinit.obj
 0001:0006066f       _cdsInitCcb                1106166f f client:clinit.obj
 0001:000606b5       _cdsPing_inner             110616b5 f client:clinit.obj
 0001:000607af       _cdsPing                   110617af f client:clinit.obj
 0001:00060840       _create_clrb               11061840 f client:clrb.obj
 0001:00060911       _find_clrb                 11061911 f client:clrb.obj
 0001:000609c5       _destroy_clrb              110619c5 f client:clrb.obj
 0001:00060a22       _release_clrb              11061a22 f client:clrb.obj
 0001:00060a8e       _close_connect_clrbs       11061a8e f client:clrb.obj
 0001:00060b70       _cldbgsbuf                 11061b70 f client:cldebug.obj
 0001:00060b89       _cldbgscomm                11061b89 f client:cldebug.obj
 0001:00060b9b       _cldbgsfunc                11061b9b f client:cldebug.obj
 0001:00060bad       _cldbgsall                 11061bad f client:cldebug.obj
 0001:00060bc6       _clerrinit                 11061bc6 f client:cldebug.obj
 0001:00060c86       _cldbgubuf                 11061c86 f client:cldebug.obj
 0001:00060c9f       _cldbgucomm                11061c9f f client:cldebug.obj
 0001:00060cb1       _cldbgufunc                11061cb1 f client:cldebug.obj
 0001:00060cc3       _cldbguall                 11061cc3 f client:cldebug.obj
 0001:00060ce0       _clpack                    11061ce0 f client:clpack.obj
 0001:000612c0       _clunpack                  110622c0 f client:clunpack.obj
 0001:000617e0       _clstatinit                110627e0 f client:clstat.obj
 0001:0006182b       _clsetstats                1106282b f client:clstat.obj
 0001:0006186a       _clusetstats               1106286a f client:clstat.obj
 0001:00061880       _clsvsetup                 11062880 f client:clsvfunc.obj
 0001:00061b30       _cmgetenv                  11062b30 f cm:cmgetenv.obj
 0001:00061bdb       _cmenvfile_name            11062bdb f cm:cmgetenv.obj
 0001:00061c40       _type_name                 11062c40 f cm:cmprint.obj
 0001:00061d63       _cmprint                   11062d63 f cm:cmprint.obj
 0001:000623ed       _cdsprint                  110633ed f cm:cmprint.obj
 0001:00062430       _cmstats_init              11063430 f cm:cmstat.obj
 0001:000626f0       _s_stat                    110636f0 f cm:cmstat.obj
 0001:000628ae       _cmstats_print             110638ae f cm:cmstat.obj
 0001:00063170       _cmfind_element            11064170 f cm:cmfield.obj
 0001:00063374       _cmdereference             11064374 f cm:cmfield.obj
 0001:000635e9       _cmfield                   110645e9 f cm:cmfield.obj
 0001:00063868       _cm_append_field           11064868 f cm:cmfield.obj
 0001:00063c35       _cm_append_array_hdr       11064c35 f cm:cmfield.obj
 0001:00063dac       _cm_append_element         11064dac f cm:cmfield.obj
 0001:00063f02       _import_CDS_indirect       11064f02 f cm:cmfield.obj
 0001:00064150       _cmbufenough               11065150 f cm:cmbuf.obj
 0001:00064254       _cmbreget                  11065254 f cm:cmbuf.obj
 0001:0006431e       _cmbufdump                 1106531e f cm:cmbuf.obj
 0001:000643c0       _cmgetebuf                 110653c0 f cm:cmbuf.obj
 0001:0006452e       _cmrelbuf                  1106552e f cm:cmbuf.obj
 0001:000645df       _cmfreebuf                 110655df f cm:cmbuf.obj
 0001:0006463a       _cmbufp                    1106563a f cm:cmbuf.obj
 0001:00064670       _cmsend                    11065670 f cm:cmsend.obj
 0001:00064890       _cmwait                    11065890 f cm:cmrecv.obj
 0001:00064b6a       _cmrecv                    11065b6a f cm:cmrecv.obj
 0001:00065590       _chkmtype                  11066590 f cm:cmchk.obj
 0001:00065630       _comm_ck_alloc             11066630 f comm:cm_subs.obj
 0001:00065724       _comm_ck_talloc            11066724 f comm:cm_subs.obj
 0001:000657ae       _comm_adj_ptrs             110667ae f comm:cm_subs.obj
 0001:000658c1       _comm_ptr                  110668c1 f comm:cm_subs.obj
 0001:0006598c       _comm_trim                 1106698c f comm:cm_subs.obj
 0001:00065b7b       _comm_ck_rcv               11066b7b f comm:cm_subs.obj
 0001:00065c34       _comm_errmsg               11066c34 f comm:cm_subs.obj
 0001:00065c8c       _comm_log                  11066c8c f comm:cm_subs.obj
 0001:00065d00       _comm_init_pplus           11066d00 f comm:cm_pplus.obj
 0001:00066286       _comm_pplus_event          11067286 f comm:cm_pplus.obj
 0001:000667b5       _comm_send_data            110677b5 f comm:cm_pplus.obj
 0001:000669a9       _comm_send_confirm         110679a9 f comm:cm_pplus.obj
 0001:00066a2b       _comm_send_comreq          11067a2b f comm:cm_pplus.obj
 0001:00066b33       _comm_allocate             11067b33 f comm:cm_pplus.obj
 0001:00066c34       _comm_deallocate           11067c34 f comm:cm_pplus.obj
 0001:00066cc0       _comm_setresource          11067cc0 f comm:cm_ev.obj
 0001:00066e29       _comm_waitformsg           11067e29 f comm:cm_ev.obj
 0001:00066f6d       _comm_dispatch_events      11067f6d f comm:cm_ev.obj
 0001:00066f84       _comm_hold_events          11067f84 f comm:cm_ev.obj
 0001:00066fcd       _comm_run_event            11067fcd f comm:cm_ev.obj
 0001:00067218       _comm_set_event            11068218 f comm:cm_ev.obj
 0001:000672aa       _comm_cleanup              110682aa f comm:cm_ev.obj
 0001:000672db       _comm_wait_msgque          110682db f comm:cm_ev.obj
 0001:00067326       _comm_release_msgque       11068326 f comm:cm_ev.obj
 0001:00067344       _comm_event_active         11068344 f comm:cm_ev.obj
 0001:00067370       _comm_match                11068370 f comm:cm_match.obj
 0001:00067520       _comm_get_de_edit          11068520 f comm:cm_get.obj
 0001:00067535       _comm_get                  11068535 f comm:cm_get.obj
 0001:000677f0       _comm_put                  110687f0 f comm:cm_put.obj
 0001:00067b00       _crt_check                 11068b00 f comm:cm_crt.obj
 0001:00067b61       _crt_buffer                11068b61 f comm:cm_crt.obj
 0001:00067bfb       _crt_cursor_abs            11068bfb f comm:cm_crt.obj
 0001:00067c3f       _crt_cursor_rel            11068c3f f comm:cm_crt.obj
 0001:00067c7f       _crt_fill                  11068c7f f comm:cm_crt.obj
 0001:00067cd3       _crt_find_attribute        11068cd3 f comm:cm_crt.obj
 0001:00067d54       _crt_field_abs             11068d54 f comm:cm_crt.obj
 0001:00067d94       _crt_field_rel             11068d94 f comm:cm_crt.obj
 0001:00067dd4       _crt_get                   11068dd4 f comm:cm_crt.obj
 0001:00067f10       _crt_kybd_status           11068f10 f comm:cm_crt.obj
 0001:00067f48       _crt_put                   11068f48 f comm:cm_crt.obj
 0001:00068143       _crt_put_buffer            11069143 f comm:cm_crt.obj
 0001:00068341       _crt_test_attribute        11069341 f comm:cm_crt.obj
 0001:00068391       _crt_match                 11069391 f comm:cm_crt.obj
 0001:000684ba       _crt_set_mode              110694ba f comm:cm_crt.obj
 0001:000685d2       _crt_set_window            110695d2 f comm:cm_crt.obj
 0001:000686b0       _crt_get_cursor            110696b0 f comm:cm_crt.obj
 0001:00068720       _comm_init                 11069720 f comm:cm_init.obj
 0001:00068792       _comm_create_rcb           11069792 f comm:cm_init.obj
 0001:00068810       _comm_init_buffers         11069810 f comm:cm_init.obj
 0001:00068900       _comm_init_ptrs            11069900 f comm:cm_ptr.obj
 0001:00068a18       _comm_putptr               11069a18 f comm:cm_ptr.obj
 0001:00068ad1       _comm_getptr               11069ad1 f comm:cm_ptr.obj
 0001:00068b3c       _comm_putat                11069b3c f comm:cm_ptr.obj
 0001:00068bb7       _comm_getat                11069bb7 f comm:cm_ptr.obj
 0001:00068c2e       _comm_cpbuf                11069c2e f comm:cm_ptr.obj
 0001:00068cb0       _comm_init_x25             11069cb0 f comm:cm_x25.obj
 0001:00068cc2       _comm_x25_event            11069cc2 f comm:cm_x25.obj
 0001:00068ce0       _comm_init_cpic            11069ce0 f comm:cm_cpic.obj
 0001:00068cf2       _comm_cpic_event           11069cf2 f comm:cm_cpic.obj
 0001:00068d10       _comm_init_ctc             11069d10 f comm:cm_ctc.obj
 0001:000690a9       _comm_ctc_event            1106a0a9 f comm:cm_ctc.obj
 0001:00069353       _ctcrt_sendapi             1106a353 f comm:cm_ctc.obj
 0001:000693e2       _ctcrt_send_data           1106a3e2 f comm:cm_ctc.obj
 0001:000696a3       _ctcrt_set_mode            1106a6a3 f comm:cm_ctc.obj
 0001:00069709       _ctcrt_set_window          1106a709 f comm:cm_ctc.obj
 0001:00069779       _ctcrt_service             1106a779 f comm:cm_ctc.obj
 0001:000697f1       _ctcrt_topic               1106a7f1 f comm:cm_ctc.obj
 0001:0006986c       _ctcrt_execute             1106a86c f comm:cm_ctc.obj
 0001:0006996a       _ctcrt_poke                1106a96a f comm:cm_ctc.obj
 0001:00069a6c       _ctcrt_request             1106aa6c f comm:cm_ctc.obj
 0001:00069b80       _comm_init_lua             1106ab80 f comm:cm_lua.obj
 0001:00069d18       _comm_lua_event            1106ad18 f comm:cm_lua.obj
 0001:00069ee9       _comm_lua_send             1106aee9 f comm:cm_lua.obj
 0001:0006a170       _comm_to_ebcdic            1106b170 f comm:c_ebc.obj
 0001:0006a292       _comm_from_ebcdic          1106b292 f comm:c_ebc.obj
 0001:0006a3c0       _comm_to_bulk              1106b3c0 f comm:c_bulk.obj
 0001:0006a47e       _comm_from_bulk            1106b47e f comm:c_bulk.obj
 0001:0006a4d0       _comm_to_flag              1106b4d0 f comm:c_flag.obj
 0001:0006a5f3       _comm_from_flag            1106b5f3 f comm:c_flag.obj
 0001:0006a690       _comm_to_sebc              1106b690 f comm:c_sebc.obj
 0001:0006a844       _comm_from_sebc            1106b844 f comm:c_sebc.obj
 0001:0006a9a0       _comm_to_user              1106b9a0 f comm:c_user.obj
 0001:0006aabb       _comm_from_user            1106babb f comm:c_user.obj
 0001:0006ac70       _comm_to_ascii_enc_hex     1106bc70 f comm:c_aeh.obj
 0001:0006ade3       _comm_from_ascii_enc_hex   1106bde3 f comm:c_aeh.obj
 0001:0006ae90       _comm_to_binary            1106be90 f comm:c_bin.obj
 0001:0006b308       _comm_from_binary          1106c308 f comm:c_bin.obj
 0001:0006b800       _comm_to_bcd               1106c800 f comm:c_bcd.obj
 0001:0006ba98       _comm_from_bcd             1106ca98 f comm:c_bcd.obj
 0001:0006bcd0       _comm_to_ascii             1106ccd0 f comm:c_ascii.obj
 0001:0006bdbd       _comm_from_ascii           1106cdbd f comm:c_ascii.obj
 0001:0006bec0       _comm_load_xlate           1106cec0 f comm:cm_xlt.obj
 0001:0006c6ee       _cs_log                    1106d6ee f cslib:cslib.dll
 0001:0006c6f4       _cs_init                   1106d6f4 f cslib:cslib.dll
 0001:0006c6fa       _cs_config                 1106d6fa f cslib:cslib.dll
 0001:0006c700       _cs_net_info               1106d700 f cslib:cslib.dll
 0001:0006c706       _cs_set_options            1106d706 f cslib:cslib.dll
 0001:0006c70c       _cs_allocate               1106d70c f cslib:cslib.dll
 0001:0006c712       _cs_cfgres                 1106d712 f cslib:cslib.dll
 0001:0006c718       _cs_data                   1106d718 f cslib:cslib.dll
 0001:0006c71e       _csget_sesstat             1106d71e f cslib:cslib.dll
 0001:0006c724       _cs_confirm                1106d724 f cslib:cslib.dll
 0001:0006c72a       _cs_com                    1106d72a f cslib:cslib.dll
 0001:0006c730       _cs_deallocate             1106d730 f cslib:cslib.dll
 0001:0006c736       _cs_sendapi                1106d736 f cslib:cslib.dll
 0001:0006c740       _ddaget                    1106d740 f dataman:ddread.obj
 0001:0006c87c       _ddresetopt                1106d87c f dataman:ddread.obj
 0001:0006c890       _ddget                     1106d890 f dataman:ddread.obj
 0001:0006d552       _ddgetrec                  1106e552 f dataman:ddread.obj
 0001:0006d62f       _ddgetitemidx              1106e62f f dataman:ddread.obj
 0001:0006d861       _load_refs                 1106e861 f dataman:ddread.obj
 0001:0006de76       _ddgetstat                 1106ee76 f dataman:ddread.obj
 0001:0006e13a       _fldstosize                1106f13a f dataman:ddread.obj
 0001:0006e1e3       _fldobjcount               1106f1e3 f dataman:ddread.obj
 0001:0006e2a1       _flddupptr                 1106f2a1 f dataman:ddread.obj
 0001:0006e2c3       _ddclosestobj              1106f2c3 f dataman:ddread.obj
 0001:0006e470       _ddarraysize               1106f470 f dataman:ddread.obj
 0001:0006e4e3       _ddgetrowcol               1106f4e3 f dataman:ddread.obj
 0001:0006e710       _ddapplname                1106f710 f dataman:ddname.obj
 0001:0006e7e8       _ddname                    1106f7e8 f dataman:ddname.obj
 0001:0006e94a       _dddictname                1106f94a f dataman:ddname.obj
 0001:0006e980       _ddgetbyname               1106f980 f dataman:ddname.obj
 0001:0006ea70       _ddapplindex               1106fa70 f dataman:ddindex.obj
 0001:0006eb9b       _ddindex                   1106fb9b f dataman:ddindex.obj
 0001:0006eca8       _dddictindex               1106fca8 f dataman:ddindex.obj
 0001:0006edb0       _ddopen                    1106fdb0 f dataman:dataman.obj
 0001:0006edd2       _ddopenp                   1106fdd2 f dataman:dataman.obj
 0001:0006f3cb       _dictconfig                110703cb f dataman:dataman.obj
 0001:0006f6a8       _dictbldindex              110706a8 f dataman:dataman.obj
 0001:0006f7f9       _ddclose                   110707f9 f dataman:dataman.obj
 0001:0006f8e0       _dict_release              110708e0 f dataman:dataman.obj
 0001:0006faff       _dict_release_item         11070aff f dataman:dataman.obj
 0001:0006fbf8       _ddlastupdate              11070bf8 f dataman:dataman.obj
 0001:0006fc73       _ddcreatetime              11070c73 f dataman:dataman.obj
 0001:0006fcd8       _ddpath                    11070cd8 f dataman:dataman.obj
 0001:0006fd18       _ddapplcount               11070d18 f dataman:dataman.obj
 0001:0006fd5b       _open_dict                 11070d5b f dataman:dataman.obj
 0001:0006fdc4       _ddhashID                  11070dc4 f dataman:dataman.obj
 0001:0006fdfc       _ddgetprojman              11070dfc f dataman:dataman.obj
 0001:0006fe21       _DDspillguts               11070e21 f dataman:dataman.obj
 0001:0006fe51       _ddgetdd                   11070e51 f dataman:dataman.obj
 0001:0006fe76       _dd_cleanup                11070e76 f dataman:dataman.obj
 0001:0006fec0       _cfig_load                 11070ec0 f dataman:cfgrun.obj
 0001:0007016f       _cfig_open                 1107116f f dataman:cfgrun.obj
 0001:000702af       _get_moakeyvalue           110712af f dataman:cfgrun.obj
 0001:0007039f       _get_moacurproj            1107139f f dataman:cfgrun.obj
 0001:000703d0       _local_create_group        110713d0 f dataman:ddlocals.obj
 0001:000704a2       _local_allocate            110714a2 f dataman:ddlocals.obj
 0001:000706b9       _local_deallocate          110716b9 f dataman:ddlocals.obj
 0001:000707a8       _local_deallocate_all      110717a8 f dataman:ddlocals.obj
 0001:00070853       _local_get                 11071853 f dataman:ddlocals.obj
 0001:0007090f       _local_get_by_name         1107190f f dataman:ddlocals.obj
 0001:000709b7       _local_index               110719b7 f dataman:ddlocals.obj
 0001:00070a66       _local_name                11071a66 f dataman:ddlocals.obj
 0001:00070b01       _local_name_by_fp          11071b01 f dataman:ddlocals.obj
 0001:00070b74       _local_set_ddh             11071b74 f dataman:ddlocals.obj
 0001:00070e71       _local_dump_locals         11071e71 f dataman:ddlocals.obj
 0001:00070ff0       _ddininame                 11071ff0 f dataman:ddini.obj
 0001:00071140       _ddgetlist                 11072140 f dataman:ddgetlst.obj
 0001:00071810       _btreeitemindex            11072810 f dataman:ddfmindx.obj
 0001:0007190a       _btreedaddr                1107290a f dataman:ddfmindx.obj
 0001:000719d8       _btreegetbyindex           110729d8 f dataman:ddfmindx.obj
 0001:00071bb0       _convert_ints              11072bb0 f dataman:ddbytrev.obj
 0001:00072e70       _btreegetstat              11073e70 f dataman:ddfmread.obj
 0001:00072f6a       _fmread                    11073f6a f dataman:ddfmread.obj
 0001:00072ff0       _btreeitemname             11073ff0 f dataman:ddfmname.obj
 0001:000730e0       _btreeopen                 110740e0 f dataman:ddfminit.obj
 0001:00073454       _btreequickndx             11074454 f dataman:ddfminit.obj
 0001:00073848       _btreecountitems           11074848 f dataman:ddfminit.obj
 0001:00073a66       _btreebldindex             11074a66 f dataman:ddfminit.obj
 0001:00073c4b       _btreeclose                11074c4b f dataman:ddfminit.obj
 0001:00073d83       _ddbuildfname              11074d83 f dataman:ddfminit.obj
 0001:00073ef0       _ddreload                  11074ef0 f ddmaint:ddreload.obj
 0001:00073fb0       _ddrename                  11074fb0 f ddmaint:ddrename.obj
 0001:00074120       _btreeinsertitem           11075120 f ddmaint:ddfmwrit.obj
 0001:000741ac       _btreeinsert               110751ac f ddmaint:ddfmwrit.obj
 0001:0007444e       _btreedeleteitem           1107544e f ddmaint:ddfmwrit.obj
 0001:00074499       _btreedelete               11075499 f ddmaint:ddfmwrit.obj
 0001:00074694       _btreeputstat              11075694 f ddmaint:ddfmwrit.obj
 0001:0007486f       _fmwrite                   1107586f f ddmaint:ddfmwrit.obj
 0001:000748f9       _btreewrite                110758f9 f ddmaint:ddfmwrit.obj
 0001:00074be0       _ddsetsignal               11075be0 f ddmaint:ddsignal.obj
 0001:00074c1a       _dd_inc_update             11075c1a f ddmaint:ddsignal.obj
 0001:00074c2b       _dd_dec_update             11075c2b f ddmaint:ddsignal.obj
 0001:00074d30       _ddput                     11075d30 f ddmaint:ddwrite.obj
 0001:000759bd       _dddel                     110769bd f ddmaint:ddwrite.obj
 0001:00075d0a       _ddputstat                 11076d0a f ddmaint:ddwrite.obj
 0001:00076079       _ddsaveqck                 11077079 f ddmaint:ddwrite.obj
 0001:00076a50       _btreerename               11077a50 f ddmaint:ddfmren.obj
 0001:00076da0       _ddaddappl                 11077da0 f ddmaint:ddmaint.obj
 0001:00077056       _ddidentical               11078056 f ddmaint:ddmaint.obj
 0001:00077fa4       _legalname                 11078fa4 f ddmaint:ddmaint.obj
 0001:00078600       _deccmp                    11079600 f decmath:DECCMP.OBJ
 0001:00078880       _decadd                    11079880 f decmath:DECADD.OBJ
 0001:00078b45       _decsub                    11079b45 f decmath:DECADD.OBJ
 0001:00079090       _decmul                    1107a090 f decmath:DECMUL.OBJ
 0001:0007912f       _lomul                     1107a12f f decmath:DECMUL.OBJ
 0001:000792e0       _decdiv                    1107a2e0 f decmath:DECDIV.OBJ
 0001:0007964d       _decmod                    1107a64d f decmath:DECDIV.OBJ
 0001:00079e60       _abscmp                    1107ae60 f decmath:DECMISC.OBJ
 0001:00079edb       _decmove                   1107aedb f decmath:DECMISC.OBJ
 0001:0007a109       _dectrim                   1107b109 f decmath:DECMISC.OBJ
 0001:0007a1b4       _decmovlj                  1107b1b4 f decmath:DECMISC.OBJ
 0001:0007a2c0       _sl_create                 1107b2c0 f dsplist:scrlist.obj
 0001:0007a31e       _sl_append                 1107b31e f dsplist:scrlist.obj
 0001:0007a512       _sl_remove                 1107b512 f dsplist:scrlist.obj
 0001:0007a5ce       _sl_refresh                1107b5ce f dsplist:scrlist.obj
 0001:0007a621       _sl_refreshfrom            1107b621 f dsplist:scrlist.obj
 0001:0007ab65       _sl_calcbounds             1107bb65 f dsplist:scrlist.obj
 0001:0007ac6a       _sl_makecurrent            1107bc6a f dsplist:scrlist.obj
 0001:0007ad15       _sl_drawbox                1107bd15 f dsplist:scrlist.obj
 0001:0007af70       _free_controls             1107bf70 f dsplist:scrlist.obj
 0001:0007b030       _dl_create                 1107c030 f dsplist:dsplist.obj
 0001:0007b061       _dl_draw                   1107c061 f dsplist:dsplist.obj
 0001:0007b15e       _dl_refresh                1107c15e f dsplist:dsplist.obj
 0001:0007b279       _dl_refresh_rect           1107c279 f dsplist:dsplist.obj
 0001:0007b29c       _dl_cleanup                1107c29c f dsplist:dsplist.obj
 0001:0007b4c0       _TDsetcolor                1107c4c0 f dsplist:tdspl.obj
 0001:0007b503       _set_look                  1107c503 f dsplist:tdspl.obj
 0001:0007b5fd       _erasebox                  1107c5fd f dsplist:tdspl.obj
 0001:0007b670       _normalize_linerect        1107c670 f dsplist:tdspl.obj
 0001:0007b762       _calc_dlbounds             1107c762 f dsplist:tdspl.obj
 0001:0007b844       _eraseline                 1107c844 f dsplist:tdspl.obj
 0001:0007b91e       _erasestring               1107c91e f dsplist:tdspl.obj
 0001:0007b9f9       _erasetext                 1107c9f9 f dsplist:tdspl.obj
 0001:0007bac0       _hilite                    1107cac0 f dsplist:tdspl.obj
 0001:0007bb39       _clear_colorbox            1107cb39 f dsplist:tdspl.obj
 0001:0007bb5a       _check_color               1107cb5a f dsplist:tdspl.obj
 0001:0007bbbf       _control_string            1107cbbf f dsplist:tdspl.obj
 0001:0007bfee       _dl_drawradiobutton        1107cfee f dsplist:tdspl.obj
 0001:0007c651       _dl_drawcheckbox           1107d651 f dsplist:tdspl.obj
 0001:0007cbf7       _drawicon                  1107dbf7 f dsplist:tdspl.obj
 0001:0007cf01       _eraseicon                 1107df01 f dsplist:tdspl.obj
 0001:0007cf65       _drawpicture               1107df65 f dsplist:tdspl.obj
 0001:0007cff4       _erasepicture              1107dff4 f dsplist:tdspl.obj
 0001:0007d028       _dl_get_hwinfo             1107e028 f dsplist:tdspl.obj
 0001:0007d03c       _dl_drawreliefborder       1107e03c f dsplist:tdspl.obj
 0001:0007d2b6       _drawline                  1107e2b6 f dsplist:tdspl.obj
 0001:0007d387       _drawbox                   1107e387 f dsplist:tdspl.obj
 0001:0007da10       _InsetRect                 1107ea10 f dsplist:tdspl.obj
 0001:0007da46       _drawstring                1107ea46 f dsplist:tdspl.obj
 0001:0007da66       _drawtext                  1107ea66 f dsplist:tdspl.obj
 0001:0007da86       _dodrawstr                 1107ea86 f dsplist:tdspl.obj
 0001:0007de27       _setboxrect                1107ee27 f dsplist:tdspl.obj
 0001:0007df3e       _unsetboxrect              1107ef3e f dsplist:tdspl.obj
 0001:0007e055       _lineto                    1107f055 f dsplist:tdspl.obj
 0001:0007e6a7       _createcolorbrush          1107f6a7 f dsplist:tdspl.obj
 0001:0007e741       _selectpen                 1107f741 f dsplist:tdspl.obj
 0001:0007e8bf       _setbitpat                 1107f8bf f dsplist:tdspl.obj
 0001:0007e9cc       _createpattern             1107f9cc f dsplist:tdspl.obj
 0001:0007eb7d       _colorizepattern           1107fb7d f dsplist:tdspl.obj
 0001:0007ecb9       _getstretchmode            1107fcb9 f dsplist:tdspl.obj
 0001:0007ed5a       _TermSysPat                1107fd5a f dsplist:tdspl.obj
 0001:0007ee1a       _drawwinrelief             1107fe1a f dsplist:tdspl.obj
 0001:0007ef40       _InitDIB                   1107ff40 f dsplist:colorpic.obj
 0001:0007ef76       _InitDIB2                  1107ff76 f dsplist:colorpic.obj
 0001:0007f18e       _FreeDib                   1108018e f dsplist:colorpic.obj
 0001:0007f24a       _AppPaint                  1108024a f dsplist:colorpic.obj
 0001:0007f35e       _NormalizeRect@4           1108035e f dsplist:colorpic.obj
 0001:0007f3d3       _GetRealClientRect         110803d3 f dsplist:colorpic.obj
 0001:0007f42e       _CopyHandle                1108042e f dsplist:colorpic.obj
 0001:0007f4c0       _OpenDIB                   110804c0 f dsplist:colorpic.obj
 0001:0007f5f8       _DibInfo                   110805f8 f dsplist:colorpic.obj
 0001:0007f692       _CreateBIPalette           11080692 f dsplist:colorpic.obj
 0001:0007fbbf       _ReadDibBitmapInfo         11080bbf f dsplist:colorpic.obj
 0001:0007fe9c       _PaletteSize               11080e9c f dsplist:colorpic.obj
 0001:0007fef1       _DibNumColors              11080ef1 f dsplist:colorpic.obj
 0001:0007ffa3       _DibFromBitmap             11080fa3 f dsplist:colorpic.obj
 0001:00080264       _BitmapFromDib             11081264 f dsplist:colorpic.obj
 0001:000802fa       _ReadBitMapFileHeaderandConvertToDwordAlign 110812fa f dsplist:colorpic.obj
 0001:00080344       _drawcolorpic              11081344 f dsplist:colorpic.obj
 0001:000804d8       _CreateRTWindowDIB         110814d8 f dsplist:colorpic.obj
 0001:00080646       _CopyVideoWndProc@16       11081646 f dsplist:colorpic.obj
 0001:00080d8b       _CopyVideoPaint            11081d8b f dsplist:colorpic.obj
 0001:00080e47       _DisplayRTWindowDIB        11081e47 f dsplist:colorpic.obj
 0001:00080fea       _SetScrollRanges           11081fea f dsplist:colorpic.obj
 0001:000810e9       _WriteDIB                  110820e9 f dsplist:colorpic.obj
 0001:000812c3       _GetBMPSizeAndHandle       110822c3 f dsplist:colorpic.obj
 0001:00081325       _GetBMPSize                11082325 f dsplist:colorpic.obj
 0001:000813f2       _GetRGB                    110823f2 f dsplist:colorpic.obj
 0001:00081450       _RtExtractIcon             11082450 f dsplist:extico.obj
 0001:000818f0       _getcfg                    110828f0 f libnb:cfglib.obj
 0001:00081947       _putcfg                    11082947 f libnb:cfglib.obj
 0001:000819d6       _rmcfg                     110829d6 f libnb:cfglib.obj
 0001:00081a46       _bufcfg                    11082a46 f libnb:cfglib.obj
 0001:00081ed1       _putnet_boss               11082ed1 f libnb:cfglib.obj
 0001:00082760       _NBGR                      11083760 f libnb:nball.obj
 0001:00082782       _NBZR                      11083782 f libnb:nball.obj
 0001:000827a2       _nball                     110837a2 f libnb:nball.obj
 0001:00082ed1       _nb_rcv                    11083ed1 f libnb:nball.obj
 0001:00082fd0       _NBopen                    11083fd0 f libnb:nbopen.obj
 0001:00082fec       _NBopen_p                  11083fec f libnb:nbopen.obj
 0001:00083100       _NBpath                    11084100 f libnb:nbpath.obj
 0001:0008311e       _NBpath_p                  1108411e f libnb:nbpath.obj
 0001:00083360       _gl_createfreev            11084360 f listmgr:listmgr.obj
 0001:00083430       _gl_createfree             11084430 f listmgr:listmgr.obj
 0001:0008344e       _gl_create                 1108444e f listmgr:listmgr.obj
 0001:0008348d       _gl_create_head            1108448d f listmgr:listmgr.obj
 0001:000834ca       _gl_append                 110844ca f listmgr:listmgr.obj
 0001:0008362b       _gl_insertafter            1108462b f listmgr:listmgr.obj
 0001:0008371d       _gl_insertbefore           1108471d f listmgr:listmgr.obj
 0001:00083818       _gl_remove                 11084818 f listmgr:listmgr.obj
 0001:000838c3       _gl_free_head              110848c3 f listmgr:listmgr.obj
 0001:00083954       _gl_free                   11084954 f listmgr:listmgr.obj
 0001:00083980       _MCNInit                   11084980 f mcn:mcn.obj
 0001:00083b9a       _MCNCleanup                11084b9a f mcn:mcn.obj
 0001:00083bd2       _MCNAddSocket              11084bd2 f mcn:mcn.obj
 0001:00083c2d       _MCNRemoveSocket           11084c2d f mcn:mcn.obj
 0001:00083c8a       _MCNAddMessage             11084c8a f mcn:mcn.obj
 0001:00083cd9       _MCNRemoveMessage          11084cd9 f mcn:mcn.obj
 0001:00083d17       _MCNOpenListen             11084d17 f mcn:mcn.obj
 0001:00083d49       _MCNOpenListenEx           11084d49 f mcn:mcn.obj
 0001:00084041       _MCNConnect                11085041 f mcn:mcn.obj
 0001:000841f6       _MCNConnectService         110851f6 f mcn:mcn.obj
 0001:00084403       _MCNPingService            11085403 f mcn:mcn.obj
 0001:000844df       _MCNAsyncConnect           110854df f mcn:mcn.obj
 0001:00084847       _MCNAsyncConnectService    11085847 f mcn:mcn.obj
 0001:000859dd       _MCNAsyncListen            110869dd f mcn:mcn.obj
 0001:00085af8       _MCNAsyncRecv              11086af8 f mcn:mcn.obj
 0001:00085c48       _MCNAsyncSend              11086c48 f mcn:mcn.obj
 0001:00085d98       _MCNRecv                   11086d98 f mcn:mcn.obj
 0001:00085f35       _MCNSend                   11086f35 f mcn:mcn.obj
 0001:0008611b       _MCNGetAddress             1108711b f mcn:mcn.obj
 0001:00086325       _MCNOpenDatagram           11087325 f mcn:mcn.obj
 0001:00086579       _MCNAsyncRecvDatagram      11087579 f mcn:mcn.obj
 0001:000866f0       _MCNAsyncSendDatagram      110876f0 f mcn:mcn.obj
 0001:00086867       _MCNCancel                 11087867 f mcn:mcn.obj
 0001:000869ee       _MCNClose                  110879ee f mcn:mcn.obj
 0001:00086b0e       _MCNMessage                11087b0e f mcn:mcn.obj
 0001:000881c1       _MCNBuildServerLocate      110891c1 f mcn:mcn.obj
 0001:0008822f       _MCNBuildServerLocationMsg 1108922f f mcn:mcn.obj
 0001:00088305       _MCNBuildServerLocation    11089305 f mcn:mcn.obj
 0001:00088992       _MCNbeat                   11089992 f mcn:mcn.obj
 0001:00088aad       _MCNbeatHeart              11089aad f mcn:mcn.obj
 0001:00088f92       _MCNSetULog                11089f92 f mcn:mcn.obj
 0001:00088ffd       _MCNULog                   11089ffd f mcn:mcn.obj
 0001:000891e0       _swerrormsg                1108a1e0 f misc:swerrmsg.obj
 0001:000894c6       _swtextmsg                 1108a4c6 f misc:swerrmsg.obj
 0001:00089520       _valid_date                1108a520 f misc:dates.obj
 0001:0008989d       _firstday                  1108a89d f misc:dates.obj
 0001:00089924       _yeartype                  1108a924 f misc:dates.obj
 0001:000899b3       _day_of_week               1108a9b3 f misc:dates.obj
 0001:00089a87       _day_of                    1108aa87 f misc:dates.obj
 0001:00089abd       _month_of                  1108aabd f misc:dates.obj
 0001:00089af3       _year_of                   1108aaf3 f misc:dates.obj
 0001:00089b29       _date_subtract             1108ab29 f misc:dates.obj
 0001:00089b7e       _days_to                   1108ab7e f misc:dates.obj
 0001:00089c98       _date_add                  1108ac98 f misc:dates.obj
 0001:0008a006       _date_compare              1108b006 f misc:dates.obj
 0001:0008a10b       _date_convert              1108b10b f misc:dates.obj
 0001:0008a52f       _day_of_year               1108b52f f misc:dates.obj
 0001:0008a5bb       _bld_cal                   1108b5bb f misc:dates.obj
 0001:0008a8fa       _make_date_string          1108b8fa f misc:dates.obj
 0001:0008a923       _dayname                   1108b923 f misc:dates.obj
 0001:0008ab87       _monthname                 1108bb87 f misc:dates.obj
 0001:0008ad4f       _daycount                  1108bd4f f misc:dates.obj
 0001:0008ad80       _rawkey                    1108bd80 f misc:rtrawkey.obj
 0001:0008aed5       _check_reset               1108bed5 f misc:rtrawkey.obj
 0001:0008b2cc       _key_event                 1108c2cc f misc:rtrawkey.obj
 0001:0008b3f0       _sync_write                1108c3f0 f misc:rtrawkey.obj
 0001:0008b469       _key_fold                  1108c469 f misc:rtrawkey.obj
 0001:0008b672       _undo_watchcursor          1108c672 f misc:rtrawkey.obj
 0001:0008b69b       _do_watchcursor            1108c69b f misc:rtrawkey.obj
 0001:0008b6ba       _set_delayed_watchcursor   1108c6ba f misc:rtrawkey.obj
 0001:0008b71c       _remove_watchcursor_completely 1108c71c f misc:rtrawkey.obj
 0001:0008b76e       _flopcursor                1108c76e f misc:rtrawkey.obj
 0001:0008b7a7       _control_mouse_events      1108c7a7 f misc:rtrawkey.obj
 0001:0008b82c       _times                     1108c82c f misc:rtrawkey.obj
 0001:0008b842       _setcursor                 1108c842 f misc:rtrawkey.obj
 0001:0008b931       _clear_mouse_messages      1108c931 f misc:rtrawkey.obj
 0001:0008b964       _clear_key_messages        1108c964 f misc:rtrawkey.obj
 0001:0008b9a0       _field2decwork             1108c9a0 f misc:convers.obj
 0001:0008ba91       _decwork2field             1108ca91 f misc:convers.obj
 0001:0008c27c       _str2decwork               1108d27c f misc:convers.obj
 0001:0008c515       _decwork2str               1108d515 f misc:convers.obj
 0001:0008c6db       _remove_digits             1108d6db f misc:convers.obj
 0001:0008c898       _isASCIIfield              1108d898 f misc:convers.obj
 0001:0008c8f6       _isNUMERICfield            1108d8f6 f misc:convers.obj
 0001:0008c967       _isDISPLAYfield            1108d967 f misc:convers.obj
 0001:0008c9b8       _int2decwork               1108d9b8 f misc:convers.obj
 0001:0008ca88       _int2str                   1108da88 f misc:convers.obj
 0001:0008cbed       _str2int                   1108dbed f misc:convers.obj
 0001:0008cd5e       _decwork2int               1108dd5e f misc:convers.obj
 0001:0008cdf2       _field2int                 1108ddf2 f misc:convers.obj
 0001:0008cf71       _int2field                 1108df71 f misc:convers.obj
 0001:0008d1fc       _field2str                 1108e1fc f misc:convers.obj
 0001:0008d2e5       _str2field                 1108e2e5 f misc:convers.obj
 0001:0008d773       _strn2decwork              1108e773 f misc:convers.obj
 0001:0008d7cc       _strn2field                1108e7cc f misc:convers.obj
 0001:0008d851       _field_datalen             1108e851 f misc:convers.obj
 0001:0008d941       _clr_fld_storage           1108e941 f misc:convers.obj
 0001:0008da43       _getSubString              1108ea43 f misc:convers.obj
 0001:0008dbd3       _getSubStrStart            1108ebd3 f misc:convers.obj
 0001:0008dcaf       _getSubStrLen              1108ecaf f misc:convers.obj
 0001:0008dd50       _edit_cursorloc            1108ed50 f misc:editfill.obj
 0001:0008e07f       _editsuffixlength          1108f07f f misc:editfill.obj
 0001:0008e198       _editstring                1108f198 f misc:editfill.obj
 0001:0008f2e1       _edit_pad                  110902e1 f misc:editfill.obj
 0001:0008f403       _editlength                11090403 f misc:editfill.obj
 0001:0008f7ea       _editfill                  110907ea f misc:editfill.obj
 0001:0008fab9       _isspacestr                11090ab9 f misc:editfill.obj
 0001:0008fb07       _edit_check_valid          11090b07 f misc:editfill.obj
 0001:00090300       _edit_shift_date           11091300 f misc:editfill.obj
 0001:0009059c       _editdatechar              1109159c f misc:editfill.obj
 0001:000908b8       _edit_errfill              110918b8 f misc:editfill.obj
 0001:00090919       _edit_de_edit              11091919 f misc:editfill.obj
 0001:00090d30       _mem_alloc                 11091d30 f misc:memory.obj
 0001:00090d4d       _mem_free                  11091d4d f misc:memory.obj
 0001:00090d6f       _mem_realloc               11091d6f f misc:memory.obj
 0001:00090d90       _mem_calloc                11091d90 f misc:memory.obj
 0001:00090db1       _memr_alloc                11091db1 f misc:memory.obj
 0001:00090e43       _memr_free                 11091e43 f misc:memory.obj
 0001:00090eaa       _memr_realloc              11091eaa f misc:memory.obj
 0001:00090f2e       _memr_calloc               11091f2e f misc:memory.obj
 0001:00090f70       _win_msg_name              11091f70 f misc:msgname.obj
 0001:00090ff0       _msgrtn_init               11091ff0 f misc:msgrtn.obj
 0001:000910c4       _mri                       110920c4 f misc:msgrtn.obj
 0001:00091103       _mrw                       11092103 f misc:msgrtn.obj
 0001:00091146       _mre                       11092146 f misc:msgrtn.obj
 0001:000913fb       _get_mri                   110923fb f misc:msgrtn.obj
 0001:00091414       _get_mrw                   11092414 f misc:msgrtn.obj
 0001:0009142d       _get_mre                   1109242d f misc:msgrtn.obj
 0001:000914df       _SetMsgbuflen              110924df f misc:msgrtn.obj
 0001:000914f2       _set_mri                   110924f2 f misc:msgrtn.obj
 0001:0009151b       _set_mrw                   1109251b f misc:msgrtn.obj
 0001:00091548       _set_mre                   11092548 f misc:msgrtn.obj
 0001:00091670       _optype                    11092670 f misc:pclcomn.obj
 0001:000918a3       _tsize                     110928a3 f misc:pclcomn.obj
 0001:00091c29       _separate_names            11092c29 f misc:pclcomn.obj
 0001:00091e27       _validnumber               11092e27 f misc:pclcomn.obj
 0001:00091fa6       _fld_typename              11092fa6 f misc:pclcomn.obj
 0001:00091ff0       _nap                       11092ff0 f misc:nap.obj
 0001:00092010       _eraction                  11093010 f misc:er.obj
 0001:0009213d       _erbug                     1109313d f misc:er.obj
 0001:000921d3       _erbugn                    110931d3 f misc:er.obj
 0001:0009220f       _ersysn                    1109320f f misc:er.obj
 0001:0009224b       _erfile                    1109324b f misc:er.obj
 0001:0009227e       _erspace                   1109327e f misc:er.obj
 0001:000922b1       _ersys                     110932b1 f misc:er.obj
 0001:000922e4       _erusage                   110932e4 f misc:er.obj
 0001:00092317       _eruser                    11093317 f misc:er.obj
 0001:0009234a       _erusern                   1109334a f misc:er.obj
 0001:00092390       _swerror                   11093390 f misc:swerror.obj
 0001:00092530       _float2decwork             11093530 f misc:convers1.obj
 0001:00092670       _decwork2float             11093670 f misc:convers1.obj
 0001:000926c0       _make_filename             110936c0 f misc:filename.obj
 0001:00092920       _tempdir                   11093920 f misc:filename.obj
 0001:00092ad4       _required_files            11093ad4 f misc:filename.obj
 0001:00092bc0       _LoadFontTable             11093bc0 f misc:wmfontls.obj
 0001:00092f46       _UnLoadFontTable           11093f46 f misc:wmfontls.obj
 0001:00092ff3       _GetFontName               11093ff3 f misc:wmfontls.obj
 0001:000930d1       _GetFontNumber             110940d1 f misc:wmfontls.obj
 0001:00093270       _re_execb                  11094270 f misc:regexec.obj
 0001:000939c0       _comm_re_comp              110949c0 f misc:regcomp.obj
 0001:00094409       _get_nybble                11095409 f misc:regcomp.obj
 0001:000944a0       _moaLoadVerStruct          110954a0 f misc:verinfo.obj
 0001:000945ba       _moaGetVerString           110955ba f misc:verinfo.obj
 0001:00094646       _moaFreeVerStruct          11095646 f misc:verinfo.obj
 0001:00094668       _moaVerMsg                 11095668 f misc:verinfo.obj
 0001:000947f2       _PrintRelInfo              110957f2 f misc:verinfo.obj
 0001:00094880       _getopt                    11095880 f misc:getopt.obj
 0001:00094c70       _crypt                     11095c70 f misc:crypt.obj
 0001:00095004       _des_setkey                11096004 f misc:crypt.obj
 0001:0009518d       _des_cipher                1109618d f misc:crypt.obj
 0001:00095d1d       _setkey                    11096d1d f misc:crypt.obj
 0001:00095d9a       _encrypt                   11096d9a f misc:crypt.obj
 0001:00095ea0       _strindex                  11096ea0 f misc:strindex.obj
 0001:00095f70       _cvxl                      11096f70 f misc:cv.obj
 0001:00096130       _go_away                   11097130 f misc:mustfixn.obj
 0001:000961b9       _must_fixn                 110971b9 f misc:mustfixn.obj
 0001:0009620c       _must_stop                 1109720c f misc:mustfixn.obj
 0001:0009625f       _must_fixen                1109725f f misc:mustfixn.obj
 0001:00096320       _swerrorvmsg               11097320 f misc:swerrorv.obj
 0001:00096352       _swtextvmsg                11097352 f misc:swerrorv.obj
 0001:00096384       _swvargerror               11097384 f misc:swerrorv.obj
 0001:000963e0       _prnt                      110973e0 f misc:hexdmp.obj
 0001:000964aa       _hexdmp                    110974aa f misc:hexdmp.obj
 0001:00096a40       _get_byte                  11097a40 f misc:get_byte.obj
 0001:00097040       _show_message              11098040 f misc:showmsg.obj
 0001:00097070       _date_set_error            11098070 f misc:date_err.obj
 0001:00097090       _NLSInit                   11098090 f nls:nls.obj
 0001:000971f1       _moaLoadString             110981f1 f nls:nls.obj
 0001:000972cb       _IME_open                  110982cb f nls:nls.obj
 0001:0009734d       _IME_close                 1109834d f nls:nls.obj
 0001:000973cf       _IME_WndProc@16            110983cf f nls:nls.obj
 0001:00097460       _pcl2int                   11098460 f pcl:pcl2xxx.obj
 0001:00098186       _pcl2decwork               11099186 f pcl:pcl2xxx.obj
 0001:00098414       _pcl2str                   11099414 f pcl:pcl2xxx.obj
 0001:00098918       _pcl2field                 11099918 f pcl:pcl2xxx.obj
 0001:000991aa       _rt_get_fp                 1109a1aa f pcl:pcl2xxx.obj
 0001:0009959d       _eval_expr                 1109a59d f pcl:pcl2xxx.obj
 0001:00099804       _memset                    1109a804 f MSVCRT:MSVCRT.dll
 0001:0009980a       _strcpy                    1109a80a f MSVCRT:MSVCRT.dll
 0001:00099810       _memcpy                    1109a810 f MSVCRT:MSVCRT.dll
 0001:00099820       __alloca_probe             1109a820   MSVCRT:chkstk.obj
 0001:00099820       __chkstk                   1109a820   MSVCRT:chkstk.obj
 0001:00099850       _memcmp                    1109a850 f MSVCRT:MSVCRT.dll
 0001:00099856       _strlen                    1109a856 f MSVCRT:MSVCRT.dll
 0001:0009985c       _strcmp                    1109a85c f MSVCRT:MSVCRT.dll
 0001:00099862       _strcat                    1109a862 f MSVCRT:MSVCRT.dll
 0001:00099868       _abs                       1109a868 f MSVCRT:MSVCRT.dll
 0001:0009986e       _pow                       1109a86e f MSVCRT:MSVCRT.dll
 0001:00099874       __ftol                     1109a874 f MSVCRT:MSVCRT.dll
 0001:00099880       __setjmp3                  1109a880 f MSVCRT:MSVCRT.dll
 0001:00099890       __CRT_INIT@12              1109a890 f MSVCRT:crtdll.obj
 0001:00099a00       __DllMainCRTStartup@12     1109aa00 f MSVCRT:crtdll.obj
 0001:00099ac0       __initterm                 1109aac0 f MSVCRT:MSVCRT.dll
 0001:00099ad0       _WSAGetLastError@0         1109aad0 f wsock32:WSOCK32.dll
 0001:00099ad6       _getservbyname@8           1109aad6 f wsock32:WSOCK32.dll
 0001:00099adc       _inet_ntoa@4               1109aadc f wsock32:WSOCK32.dll
 0001:00099ae2       _gethostbyname@4           1109aae2 f wsock32:WSOCK32.dll
 0001:00099ae8       _gethostname@8             1109aae8 f wsock32:WSOCK32.dll
 0001:00099aee       _WSAStartup@8              1109aaee f wsock32:WSOCK32.dll
 0001:00099af4       _WSACleanup@0              1109aaf4 f wsock32:WSOCK32.dll
 0001:00099afa       _closesocket@4             1109aafa f wsock32:WSOCK32.dll
 0001:00099b00       _listen@8                  1109ab00 f wsock32:WSOCK32.dll
 0001:00099b06       _ntohs@4                   1109ab06 f wsock32:WSOCK32.dll
 0001:00099b0c       _getsockname@12            1109ab0c f wsock32:WSOCK32.dll
 0001:00099b12       _bind@12                   1109ab12 f wsock32:WSOCK32.dll
 0001:00099b18       _socket@12                 1109ab18 f wsock32:WSOCK32.dll
 0001:00099b1e       _connect@12                1109ab1e f wsock32:WSOCK32.dll
 0001:00099b24       _WSACancelAsyncRequest@4   1109ab24 f wsock32:WSOCK32.dll
 0001:00099b2a       _WSAAsyncGetHostByName@20  1109ab2a f wsock32:WSOCK32.dll
 0001:00099b30       _ioctlsocket@12            1109ab30 f wsock32:WSOCK32.dll
 0001:00099b36       _WSAAsyncGetServByName@24  1109ab36 f wsock32:WSOCK32.dll
 0001:00099b3c       _setsockopt@20             1109ab3c f wsock32:WSOCK32.dll
 0001:00099b42       _htonl@4                   1109ab42 f wsock32:WSOCK32.dll
 0001:00099b48       _htons@4                   1109ab48 f wsock32:WSOCK32.dll
 0001:00099b4e       _WSAAsyncSelect@16         1109ab4e f wsock32:WSOCK32.dll
 0001:00099b54       _sendto@24                 1109ab54 f wsock32:WSOCK32.dll
 0001:00099b5a       _recvfrom@24               1109ab5a f wsock32:WSOCK32.dll
 0001:00099b60       _getsockopt@20             1109ab60 f wsock32:WSOCK32.dll
 0001:00099b66       _accept@12                 1109ab66 f wsock32:WSOCK32.dll
 0001:00099b6c       _send@16                   1109ab6c f wsock32:WSOCK32.dll
 0001:00099b72       _recv@16                   1109ab72 f wsock32:WSOCK32.dll
 0001:00099b78       _ntohl@4                   1109ab78 f wsock32:WSOCK32.dll
 0001:00099b7e       _select@20                 1109ab7e f wsock32:WSOCK32.dll
 0001:00099b84       _GetFileVersionInfoA@16    1109ab84 f version:VERSION.dll
 0001:00099b8a       _GetFileVersionInfoSizeA@8 1109ab8a f version:VERSION.dll
 0001:00099b90       _VerQueryValueA@16         1109ab90 f version:VERSION.dll
 0001:00099ba0       _getfhdr                   1109aba0 f cbtree:getfhdr.obj
 0001:00099d30       _mtch_loc                  1109ad30 f cbtree:cbhdrrtn.obj
 0001:00099d90       _wrap_hdr                  1109ad90 f cbtree:cbhdrrtn.obj
 0001:00099e78       _free_svkey                1109ae78 f cbtree:cbhdrrtn.obj
 0001:00099ea9       _free_gtkey                1109aea9 f cbtree:cbhdrrtn.obj
 0001:00099f30       _remove_corrupt_file       1109af30 f cbtree:cbtree.obj
 0001:00099feb       _cbtree                    1109afeb f cbtree:cbtree.obj
 0001:0009aab0       _btgivvar                  1109bab0 f cbtree:btvarlen.obj
 0001:0009ad6a       _btdelvar                  1109bd6a f cbtree:btvarlen.obj
 0001:0009afd7       _btnxtrecv                 1109bfd7 f cbtree:btvarlen.obj
 0001:0009b083       _btnxtvar                  1109c083 f cbtree:btvarlen.obj
 0001:0009b0f3       _btsizvar                  1109c0f3 f cbtree:btvarlen.obj
 0001:0009b123       _btsiz_var                 1109c123 f cbtree:btvarlen.obj
 0001:0009b155       _btlastvrec                1109c155 f cbtree:btvarlen.obj
 0001:0009b302       _writzeros                 1109c302 f cbtree:btvarlen.obj
 0001:0009b740       _initdat                   1109c740 f cbtree:initdat.obj
 0001:0009b980       _creatbtr                  1109c980 f cbtree:creatbtr.obj
 0001:0009b999       _vcreatbtr                 1109c999 f cbtree:creatbtr.obj
 0001:0009c660       _btrinit1                  1109d660 f cbtree:btrinit1.obj
 0001:0009c6b0       _bt_open                   1109d6b0 f cbtree:btopen.obj
 0001:0009c6e0       _btcellspi                 1109d6e0 f cbtree:btcinit.obj
 0001:0009c7ad       _btcinit                   1109d7ad f cbtree:btcinit.obj
 0001:0009cbb8       _btrterm                   1109dbb8 f cbtree:btcinit.obj
 0001:0009cc50       _ckerror                   1109dc50 f cbtree:ckerror.obj
 0001:0009cf2a       _cberror                   1109df2a f cbtree:ckerror.obj
 0001:0009d0b0       _getroot                   1109e0b0 f cbtree:getbtree.obj
 0001:0009d16c       _getidxr                   1109e16c f cbtree:getbtree.obj
 0001:0009d581       _addvidx                   1109e581 f cbtree:getbtree.obj
 0001:0009d58c       _mvidxblk                  1109e58c f cbtree:getbtree.obj
 0001:0009d686       _updvidxp                  1109e686 f cbtree:getbtree.obj
 0001:0009d691       _vidxdel                   1109e691 f cbtree:getbtree.obj
 0001:0009d6ef       _strsave                   1109e6ef f cbtree:getbtree.obj
 0001:0009d780       _cb_malloc                 1109e780 f cbtree:cbmemory.obj
 0001:0009da54       _cb_calloc                 1109ea54 f cbtree:cbmemory.obj
 0001:0009da8f       _cb_free                   1109ea8f f cbtree:cbmemory.obj
 0001:0009dbf0       _lockunlk                  1109ebf0 f cbtree:lockunlk.obj
 0001:0009dc30       _pushdown                  1109ec30 f cbtree:stackop.obj
 0001:0009dc9a       _poptop                    1109ec9a f cbtree:stackop.obj
 0001:0009dcda       _relstack                  1109ecda f cbtree:stackop.obj
 0001:0009dcf0       _freekeys                  1109ecf0 f cbtree:freekeys.obj
 0001:0009dd50       _btrdelet                  1109ed50 f cbtree:btrdelet.obj
 0001:0009e105       _cmptnode                  1109f105 f cbtree:btrdelet.obj
 0001:0009ecb0       _btrisrt                   1109fcb0 f cbtree:btrisrt.obj
 0001:0009f780       _btstrcpy                  110a0780 f cbtree:btstrcpy.obj
 0001:0009f820       _btrgets                   110a0820 f cbtree:btrgets.obj
 0001:000a0730       _binarysr                  110a1730 f cbtree:btbinary.obj
 0001:000a0916       _binarydt                  110a1916 f cbtree:btbinary.obj
 0001:000a0bf1       _binarydu                  110a1bf1 f cbtree:btbinary.obj
 0001:000a0d20       _binvalsr                  110a1d20 f cbtree:btbinval.obj
 0001:000a0ecd       _longcast                  110a1ecd f cbtree:btbinval.obj
 0001:000a0f09       _binvaldt                  110a1f09 f cbtree:btbinval.obj
 0001:000a128f       _binvaldu                  110a228f f cbtree:btbinval.obj
 0001:000a13d0       _putfhdr                   110a23d0 f cbtree:putfhdr.obj
 0001:000a1530       _giveidxr                  110a2530 f cbtree:giveidxr.obj
 0001:000a1810       _deletbtr                  110a2810 f cbtree:deletbtr.obj
 0001:000a1954       _delnode                   110a2954 f cbtree:deletbtr.obj
 0001:000a1a50       _findroot                  110a2a50 f cbtree:findroot.obj
 0001:000a1d00       _btstrcmp                  110a2d00 f cbtree:btstrcmp.obj
 0001:000a1dd7       _btlongcmp                 110a2dd7 f cbtree:btstrcmp.obj
 0001:000a1ed0       _getbase                   110a2ed0 f cbtree:getbase.obj
 0001:000a2000       _getinfo                   110a3000 f cbtree:getinfo.obj
 0001:000a2120       _fdgets                    110a3120 f cbtree:fdgets.obj
 0001:000a21b3       _fdgetc                    110a31b3 f cbtree:fdgets.obj
 0001:000a21f0       _strnlcpy                  110a31f0 f cbtree:strnlcpy.obj
 0001:000a2290       _strnncpy                  110a3290 f cbtree:strnncpy.obj
 0001:000a2320       _putroot                   110a3320 f cbtree:putbtree.obj
 0001:000a23ad       _putidxr                   110a33ad f cbtree:putbtree.obj
 0001:000a2747       _keyadd                    110a3747 f cbtree:putbtree.obj
 0001:000a2790       _cpyltbro                  110a3790 f cbtree:cpyltbro.obj
 0001:000a2bb0       _cpyrtbro                  110a3bb0 f cbtree:cpyrtbro.obj
 0001:000a3220       _updilvl                   110a4220 f cbtree:updilvl.obj
 0001:000a33a0       _deleteky                  110a43a0 f cbtree:deleteky.obj
 0001:000a3410       _deletrec                  110a4410 f cbtree:deletrec.obj
 0001:000a3510       _adjstack                  110a4510 f cbtree:adjstack.obj
 0001:000a36c0       _blkshft                   110a46c0 f cbtree:blkshft.obj
 0001:000a37a0       _insertky                  110a47a0 f cbtree:btinsplt.obj
 0001:000a3855       _spltnode                  110a4855 f cbtree:btinsplt.obj
 0001:000a39e0       _btstrncm                  110a49e0 f cbtree:btstrncm.obj
 0001:000a3b60       _comm_hdr                  110a4b60 f comm:cm_hdr.obj
 0001:000a4026       _csget_auxport             110a5026 f cslib:cslib.dll
 0001:000a402c       _csget_linktype            110a502c f cslib:cslib.dll
 0001:000a4032       _csget_dest                110a5032 f cslib:cslib.dll
 0001:000a4038       _csget_resiltype           110a5038 f cslib:cslib.dll
 0001:000a403e       _csget_linkstat            110a503e f cslib:cslib.dll
 0001:000a4044       _csget_last_host           110a5044 f cslib:cslib.dll
 0001:000a404a       _csget_last_etoe           110a504a f cslib:cslib.dll
 0001:000a4050       _csget_src                 110a5050 f cslib:cslib.dll
 0001:000a4056       _csget_msgsrc              110a5056 f cslib:cslib.dll
 0001:000a405c       _csget_rsctype             110a505c f cslib:cslib.dll
 0001:000a4070       _rtobj2int                 110a5070 f misc:obj2xxx.obj
 0001:000a421e       _rtobj2float               110a521e f misc:obj2xxx.obj
 0001:000a4486       _rtobj2decwork             110a5486 f misc:obj2xxx.obj
 0001:000a461f       _rtobj2str                 110a561f f misc:obj2xxx.obj
 0001:000a4802       _rtobj2char                110a5802 f misc:obj2xxx.obj
 0001:000a48a0       _must_fix                  110a58a0 f misc:mustfix.obj
 0001:000a48ea       _must_fixe                 110a58ea f misc:mustfix.obj
 0001:000a4980       _GetFieldName              110a5980 f misc:fn.obj
 0001:000a4aa8       _GetFieldNameByNum         110a5aa8 f misc:fn.obj
 0001:000a4ae0       _hexdump                   110a5ae0 f misc:hexdump.obj
 0001:000a5020       _pclcompile                110a6020 f pcl:compile.obj
 0001:000ae759       _get_words                 110af759 f pcl:compile.obj
 0001:000aec70       _iswhite                   110afc70 f pcl:compile.obj
 0001:000aecd7       _novalidate                110afcd7 f pcl:compile.obj
 0001:000aed3f       _myindex                   110afd3f f pcl:compile.obj
 0001:000aed81       _get_item                  110afd81 f pcl:compile.obj
 0001:000b012a       _ishex                     110b112a f pcl:compile.obj
 0001:000b02b9       _meta                      110b12b9 f pcl:compile.obj
 0001:000b06b3       _make_ax                   110b16b3 f pcl:compile.obj
 0001:000b0b4e       _check_ind_ref             110b1b4e f pcl:compile.obj
 0001:000b0cf3       _validstring               110b1cf3 f pcl:compile.obj
 0001:000b1143       _reset_file_and_line       110b2143 f pcl:compile.obj
 0001:000b1490       _valid_expression          110b2490 f pcl:compile.obj
 0001:000b1ba9       _strnmatch                 110b2ba9 f pcl:compile.obj
 0001:000b1d19       _valid_text_item           110b2d19 f pcl:compile.obj
 0001:000b1f93       _compile_expr              110b2f93 f pcl:compile.obj
 0001:000b2123       _echoline                  110b3123 f pcl:compile.obj
 0001:000b2bc0       _get_one_byte_int          110b3bc0 f pcl:compile.obj
 0001:000b2c7a       _val_string                110b3c7a f pcl:compile.obj
 0001:000b2ce2       _val_int                   110b3ce2 f pcl:compile.obj
 0001:000b2eaf       _Set_compiler_source_proc  110b3eaf f pcl:compile.obj
 0001:000b2f69       _Tools_get_PCLlineno       110b3f69 f pcl:compile.obj
 0001:000b3530       _pcldecompile              110b4530 f pcl:decomp.obj
 0001:000b803d       _outcharcon                110b903d f pcl:decomp.obj
 0001:000b81a3       _outchar                   110b91a3 f pcl:decomp.obj
 0001:000b81e4       _outop                     110b91e4 f pcl:decomp.obj
 0001:000b82e5       _outdecnl                  110b92e5 f pcl:decomp.obj
 0001:000b833e       _outdec                    110b933e f pcl:decomp.obj
 0001:000b83b4       _outword                   110b93b4 f pcl:decomp.obj
 0001:000b843c       _outwordns                 110b943c f pcl:decomp.obj
 0001:000b8542       _outwordnl                 110b9542 f pcl:decomp.obj
 0001:000b85b7       _outf                      110b95b7 f pcl:decomp.obj
 0001:000b861f       _showoperand               110b961f f pcl:decomp.obj
 0001:000b93cd       _decomp_expr               110ba3cd f pcl:decomp.obj
 0001:000ba302       _make_name                 110bb302 f pcl:decomp.obj
 0001:000bad34       _checkhotzone              110bbd34 f pcl:decomp.obj
 0001:000bae48       _outname                   110bbe48 f pcl:decomp.obj
 0001:000bae7b       _outnamens                 110bbe7b f pcl:decomp.obj
 0001:000baeae       _outnamenl                 110bbeae f pcl:decomp.obj
 0001:000baf0c       _tool_decomp_expr          110bbf0c f pcl:decomp.obj
 0001:000bb050       _pcllookup                 110bc050 f pcl:lookup.obj
 0001:000bb116       _pclkeyword                110bc116 f pcl:lookup.obj
 0001:000bb173       _match                     110bc173 f pcl:lookup.obj
 0001:000bb21a       _object_name               110bc21a f pcl:lookup.obj
 0001:000bb390       _cpp_set_error_callback    110bc390 f pcl:pcpp.obj
 0001:000bb3a3       _cpp_clear_error_callback  110bc3a3 f pcl:pcpp.obj
 0001:000bb3b8       _cpp_init                  110bc3b8 f pcl:pcpp.obj
 0001:000bb6a6       _cpp_init2                 110bc6a6 f pcl:pcpp.obj
 0001:000bb969       _cpp_arg                   110bc969 f pcl:pcpp.obj
 0001:000bbd1d       _cpp                       110bcd1d f pcl:pcpp.obj
 0001:000bfed9       _pcpp_more                 110c0ed9 f pcl:pcpp.obj
 0001:000bff02       _pcpp                      110c0f02 f pcl:pcpp.obj
 0001:000c0150       _get_fwdref                110c1150 f pcl:fwdref.obj
 0001:000c0274       _init_fwdref_objects       110c1274 f pcl:fwdref.obj
 0001:000c0733       _free_fwdref_objects       110c1733 f pcl:fwdref.obj
 0001:000c0810       _infix2postfix             110c1810 f pcl:pclexpr.obj
 0001:000c109b       _compact                   110c209b f pcl:pclexpr.obj
 0001:000c2ca0       _token_lookup              110c3ca0 f pcl:tokenlok.obj
 0001:000c2d62       _token_name                110c3d62 f pcl:tokenlok.obj
 0001:000c2de0       _comm_token                110c3de0 f pcl:tokenlok.obj
 0001:000c2e03       _comm_token_name           110c3e03 f pcl:tokenlok.obj
 0001:000c2e26       _dp_token                  110c3e26 f pcl:tokenlok.obj
 0001:000c2e49       _dp_token_name             110c3e49 f pcl:tokenlok.obj
 0001:000c2e6c       _cds_token                 110c3e6c f pcl:tokenlok.obj
 0001:000c2e8f       _cds_token_name            110c3e8f f pcl:tokenlok.obj
 0001:000c2eb2       _dde_token                 110c3eb2 f pcl:tokenlok.obj
 0001:000c2ed5       _dde_token_name            110c3ed5 f pcl:tokenlok.obj
 0001:000c2ef8       _dll_token                 110c3ef8 f pcl:tokenlok.obj
 0001:000c2f4c       _dll_token_name            110c3f4c f pcl:tokenlok.obj
 0001:000c2f70       _getflag_value             110c3f70 f pcl:flaglist.obj
 0001:000c31a1       _getflag_name              110c41a1 f pcl:flaglist.obj
 0001:000c3450       _drawstmt                  110c4450 f pcl:drawstmt.obj
 0001:000c5fbb       _compile_tag               110c6fbb f pcl:drawstmt.obj
 0001:000c60db       _get_num2                  110c70db f pcl:drawstmt.obj
 0001:000c6184       _get_num1                  110c7184 f pcl:drawstmt.obj
 0001:000c6220       _pdmstmt                   110c7220 f pcl:pdmstmt.obj
 0001:000c6a70       _prtstmt                   110c7a70 f pcl:prtstmt.obj
 0001:000c8460       _dllstmt                   110c9460 f pcl:dllstmt.obj
 0001:000c8612       _declarestmt               110c9612 f pcl:dllstmt.obj
 0001:000c8879       _FixUpParametersPassed     110c9879 f pcl:dllstmt.obj
 0001:000c8aa0       _ddestmt                   110c9aa0 f pcl:ddestmt.obj
 0001:000ca3d0       _crtstmt                   110cb3d0 f pcl:crtstmt.obj
 0001:000cb690       _commstmt                  110cc690 f pcl:commstmt.obj
 0001:000ce459       _validlength               110cf459 f pcl:commstmt.obj
 0001:000ce586       _validcommstr              110cf586 f pcl:commstmt.obj
 0001:000ce6a0       _cdsstmt                   110cf6a0 f pcl:cdsstmt.obj
 0001:000d49a7       _valid_string              110d59a7 f pcl:cdsstmt.obj
 0001:000d4a1f       _valid_int                 110d5a1f f pcl:cdsstmt.obj
 0001:000d4ea0       _deprt                     110d5ea0 f pcl:deprt.obj
 0001:000d5830       _dedll                     110d6830 f pcl:dedll.obj
 0001:000d5941       _dedeclare                 110d6941 f pcl:dedll.obj
 0001:000d5af0       _dedde                     110d6af0 f pcl:dedde.obj
 0001:000d6590       _decds                     110d7590 f pcl:decds.obj
 0001:000d8890       _decrt                     110d9890 f pcl:decrt.obj
 0001:000d8f30       _decomm                    110d9f30 f pcl:decomm.obj
 0001:000d9f10       _depdm                     110daf10 f pcl:depdm.obj
 0001:000da100       _dedraw                    110db100 f pcl:dedraw.obj
 0001:000db330       _tab_init                  110dc330 f pcl:lextab.obj
 0002:00000000       _ftab1                     110dd000   execcds.obj
 0002:000002d8       _ftab2                     110dd2d8   execcds.obj
 0002:00000620       _Interface_Version         110dd620   execcds.obj
 0002:00000640       _CDS_                      110dd640   client:clinit.obj
 0002:00000650       _Ascending                 110dd650   cm:cmfparms.obj
 0002:00000654       _Descending                110dd654   cm:cmfparms.obj
 0002:00000658       _fchar                     110dd658   cm:cmfparms.obj
 0002:0000065c       _fint                      110dd65c   cm:cmfparms.obj
 0002:00000660       _faddr                     110dd660   cm:cmfparms.obj
 0002:00000664       _fstring                   110dd664   cm:cmfparms.obj
 0002:00000668       _fnull                     110dd668   cm:cmfparms.obj
 0002:00000670       _psvsetup                  110dd670   cm:cmfparms.obj
 0002:00000698       _pCds_Select               110dd698   cm:cmfparms.obj
 0002:000006c0       _pCds_SelectnFetch         110dd6c0   cm:cmfparms.obj
 0002:000006e8       _pCds_Join                 110dd6e8   cm:cmfparms.obj
 0002:00000710       _pCds_End_Select           110dd710   cm:cmfparms.obj
 0002:00000720       _pCds_Insert               110dd720   cm:cmfparms.obj
 0002:00000740       _pBatchInsert              110dd740   cm:cmfparms.obj
 0002:00000758       _pCds_Update               110dd758   cm:cmfparms.obj
 0002:00000778       _pCds_Update_All           110dd778   cm:cmfparms.obj
 0002:00000790       _pCds_Delete               110dd790   cm:cmfparms.obj
 0002:000007a8       _pCds_Delete_All           110dd7a8   cm:cmfparms.obj
 0002:000007c0       _pCds_Find                 110dd7c0   cm:cmfparms.obj
 0002:000007d8       _pCds_Find_n               110dd7d8   cm:cmfparms.obj
 0002:000007f0       _psv_who                   110dd7f0   cm:cmfparms.obj
 0002:00000800       _pCds_Server_Names         110dd800   cm:cmfparms.obj
 0002:00000810       _pWork                     110dd810   cm:cmfparms.obj
 0002:00000818       _pSetConnectOption         110dd818   cm:cmfparms.obj
 0002:00000830       _pGetConnectOption         110dd830   cm:cmfparms.obj
 0002:00000840       _p2pc                      110dd840   cm:cmfparms.obj
 0002:00000858       _pPrepare                  110dd858   cm:cmfparms.obj
 0002:00000870       _pCds_Table_Size           110dd870   cm:cmfparms.obj
 0002:00000880       _psv_stop                  110dd880   cm:cmfparms.obj
 0002:00000888       _pPhase2                   110dd888   cm:cmfparms.obj
 0002:000008a0       _pCds_Lock_Table           110dd8a0   cm:cmfparms.obj
 0002:000008b8       _pCds_Unlock_Table         110dd8b8   cm:cmfparms.obj
 0002:000008d0       _pCds_Files                110dd8d0   cm:cmfparms.obj
 0002:000008d8       _pCds_Tables               110dd8d8   cm:cmfparms.obj
 0002:000008e0       _pCds_Compress             110dd8e0   cm:cmfparms.obj
 0002:000008f8       _pCds_Reset_Log            110dd8f8   cm:cmfparms.obj
 0002:00000900       _pCds_Create_Table         110dd900   cm:cmfparms.obj
 0002:00000920       _pCds_Alter_Table          110dd920   cm:cmfparms.obj
 0002:00000940       _pCds_Rename_Table         110dd940   cm:cmfparms.obj
 0002:00000958       _pCds_Drop_Table           110dd958   cm:cmfparms.obj
 0002:00000968       _pCds_Create_Index         110dd968   cm:cmfparms.obj
 0002:00000990       _pCds_Drop_Index           110dd990   cm:cmfparms.obj
 0002:000009a8       _pshadow_setup             110dd9a8   cm:cmfparms.obj
 0002:000009d0       _pshadow_verify            110dd9d0   cm:cmfparms.obj
 0002:000009e0       _pBecome_Primary           110dd9e0   cm:cmfparms.obj
 0002:000009e8       _pcdsync                   110dd9e8   cm:cmfparms.obj
 0002:00000a00       _pCds_Project              110dda00   cm:cmfparms.obj
 0002:00000a18       _pBe_Shadow                110dda18   cm:cmfparms.obj
 0002:00000a74       _NETtsdu                   110dda74   cm:cmrecv.obj
 0002:00000ab4       _cvlmin                    110ddab4   misc:cv.obj
 0002:00000ab8       _cvlmax                    110ddab8   misc:cv.obj
 0002:00000ac0       _Not_Run                   110ddac0   misc:mustfixn.obj
 0003:00000000       ___xc_a                    110e1000   MSVCRT:cinitexe.obj
 0003:00000004       ___xc_z                    110e1004   MSVCRT:cinitexe.obj
 0003:00000008       ___xi_a                    110e1008   MSVCRT:cinitexe.obj
 0003:0000000c       ___xi_z                    110e100c   MSVCRT:cinitexe.obj
 0003:00000cd8       _pt                        110e1cd8   execdraw.obj
 0003:00000e2c       _prtfile                   110e1e2c   execprt.obj
 0003:00000e30       _reset_msg_done            110e1e30   execprt.obj
 0003:00000e38       _papersizes                110e1e38   execprt.obj
 0003:000018a0       _dwStyle                   110e28a0   io.obj
 0003:000018a8       _kgetx                     110e28a8   io.obj
 0003:000018ac       _kputx                     110e28ac   io.obj
 0003:000018b0       _RThidden                  110e28b0   io.obj
 0003:000018b4       _RTbehind                  110e28b4   io.obj
 0003:000018b8       _RTiconified               110e28b8   io.obj
 0003:000018bc       _RTnowindow                110e28bc   io.obj
 0003:00001948       _PPlus_icon                110e2948   io.obj
 0003:00001afc       _string_index              110e2afc   manual.obj
 0003:00001b00       _scrfld_index              110e2b00   manual.obj
 0003:00001b04       _pages                     110e2b04   manual.obj
 0003:00001d64       _LastTag                   110e2d64   mouse.obj
 0003:00001fa4       _Maxpicks                  110e2fa4   ramalloc.obj
 0003:00001fdc       _HML                       110e2fdc   rt.obj
 0003:00001fe0       _RTrawmode                 110e2fe0   rt.obj
 0003:00001fe4       _RTssaltkbd                110e2fe4   rt.obj
 0003:00002548       _fonttbl                   110e3548   rtfonts.obj
 0003:00002eb8       _hCurFont                  110e3eb8   rtfonts.obj
 0003:00002f40       _Palette_Ugly              110e3f40   rtwindow.obj
 0003:00002f44       _Palette_Max               110e3f44   rtwindow.obj
 0003:00002f48       _RT_left                   110e3f48   rtwindow.obj
 0003:00002f4c       _RT_top                    110e3f4c   rtwindow.obj
 0003:00002f50       _RT_right                  110e3f50   rtwindow.obj
 0003:00002f54       _RT_bottom                 110e3f54   rtwindow.obj
 0003:00002f58       _szAppName                 110e3f58   rtwindow.obj
 0003:00002f70       _ColorTbl                  110e3f70   rtwindow.obj
 0003:00002f90       _SysPalName                110e3f90   rtwindow.obj
 0003:00003384       _Watchfield                110e4384   single.obj
 0003:00003660       _Force_uname               110e4660   client:clcdinit.obj
 0003:00003d80       _debugsw                   110e4d80   client:clinit.obj
 0003:00003d88       _ftabs                     110e4d88   client:clinit.obj
 0003:00003f7c       _Force_pid                 110e4f7c   client:clsvfunc.obj
 0003:00003f80       _Force_mname               110e4f80   client:clsvfunc.obj
 0003:00004138       _cmstats                   110e5138   cm:cmstat.obj
 0003:0000413c       _s_file                    110e513c   cm:cmstat.obj
 0003:00004538       _cmbufdbg                  110e5538   cm:cmbuf.obj
 0003:00004ae4       _tcb_tail                  110e5ae4   comm:cm_init.obj
 0003:00004ae8       _comm_tbuf_size            110e5ae8   comm:cm_init.obj
 0003:00004fe8       _ascii_to_ebcdic           110e5fe8   comm:c_ebc.obj
 0003:000050e8       _ebcdic_to_ascii           110e60e8   comm:c_ebc.obj
 0003:00005418       _bithandle                 110e6418   dataman:ddread.obj
 0003:0000541c       _bitappl                   110e641c   dataman:ddread.obj
 0003:00005420       _bititem                   110e6420   dataman:ddread.obj
 0003:00005444       _lastproj                  110e6444   dataman:dataman.obj
 0003:00005448       _lastdict                  110e6448   dataman:dataman.obj
 0003:0000544c       _lastappl                  110e644c   dataman:dataman.obj
 0003:00005450       _lastptr                   110e6450   dataman:dataman.obj
 0003:00005454       _bitbuffer                 110e6454   dataman:dataman.obj
 0003:000054ac       _DD_vflag                  110e64ac   dataman:cfgrun.obj
 0003:000056d0       _dict_names                110e66d0   dataman:ddfmtbl.obj
 0003:000058a8       _dummyitm                  110e68a8   ddmaint:ddwrite.obj
 0003:000059cc       _control_count             110e69cc   dsplist:scrlist.obj
 0003:000059d0       _control_inuse             110e69d0   dsplist:scrlist.obj
 0003:000059d4       _SLnodraw                  110e69d4   dsplist:scrlist.obj
 0003:000059d8       _BinaryXltTable            110e69d8   dsplist:tdspl.obj
 0003:000059f8       _TernaryXltTable           110e69f8   dsplist:tdspl.obj
 0003:00005a38       _Fullcolor                 110e6a38   dsplist:tdspl.obj
 0003:00005a3c       _color_monitor             110e6a3c   dsplist:tdspl.obj
 0003:00005a40       _rtPats                    110e6a40   dsplist:tdspl.obj
 0003:00005e44       _nMaxColorsInBMP           110e6e44   dsplist:colorpic.obj
 0003:00005e48       _nNumOfVisibleBMP          110e6e48   dsplist:colorpic.obj
 0003:00005e4c       _fPalColors                110e6e4c   dsplist:colorpic.obj
 0003:00005e50       _bDIBToDevice              110e6e50   dsplist:colorpic.obj
 0003:00005e54       _bLegitDraw                110e6e54   dsplist:colorpic.obj
 0003:00005e58       _wTransparent              110e6e58   dsplist:colorpic.obj
 0003:00005e5c       _hdibCurrent               110e6e5c   dsplist:colorpic.obj
 0003:00005e60       _hbmCurrent                110e6e60   dsplist:colorpic.obj
 0003:00005e64       _hbiCurrent                110e6e64   dsplist:colorpic.obj
 0003:00005fc8       _netboss_fd                110e6fc8   libnb:nball.obj
 0003:00005fcc       _NBext_read                110e6fcc   libnb:nball.obj
 0003:00006080       _MCNbeating_thread_ID      110e7080   mcn:mcn.obj
 0003:00007ac8       _Max_fields                110e8ac8   misc:rtglobal.obj
 0003:00007acc       _RTddh                     110e8acc   misc:rtglobal.obj
 0003:00007ad0       _Debug                     110e8ad0   misc:rtglobal.obj
 0003:00007ad4       _Common                    110e8ad4   misc:rtglobal.obj
 0003:00007ad8       _RTstatus_y                110e8ad8   misc:rtglobal.obj
 0003:00007adc       _UserAccess                110e8adc   misc:rtglobal.obj
 0003:00007ae0       _FWDREFDmsg                110e8ae0   misc:rtglobal.obj
 0003:00007ae4       _RTlogin                   110e8ae4   misc:rtglobal.obj
 0003:00007ae8       _Databell                  110e8ae8   misc:rtglobal.obj
 0003:00007aec       _Warningbell               110e8aec   misc:rtglobal.obj
 0003:00007af0       _Errorbell                 110e8af0   misc:rtglobal.obj
 0003:00007af4       _Ghostselection            110e8af4   misc:rtglobal.obj
 0003:00007af8       _ESC_lock                  110e8af8   misc:rtglobal.obj
 0003:00007afc       _NoServer                  110e8afc   misc:rtglobal.obj
 0003:00007b00       _DC_required_error         110e8b00   misc:rtglobal.obj
 0003:00007b04       _DC_validation_error       110e8b04   misc:rtglobal.obj
 0003:00007b08       _DC_bad_date_error         110e8b08   misc:rtglobal.obj
 0003:00007b0c       _DC_bad_time_error         110e8b0c   misc:rtglobal.obj
 0003:00007b10       _RTerrfyi2                 110e8b10   misc:rtglobal.obj
 0003:00007b14       _RTerrfyi3                 110e8b14   misc:rtglobal.obj
 0003:00007b18       _WP5_focus_color           110e8b18   misc:rtglobal.obj
 0003:00007b1c       _WP6_focus_background      110e8b1c   misc:rtglobal.obj
 0003:00007b20       _WP6_focus_foreground      110e8b20   misc:rtglobal.obj
 0003:00007b24       _Focus_rect_offset         110e8b24   misc:rtglobal.obj
 0003:00007b28       _Unassigned_Fkey_appl      110e8b28   misc:rtglobal.obj
 0003:00007b2c       _Unassigned_Fkey_item      110e8b2c   misc:rtglobal.obj
 0003:00007b30       _Bell_unassigned_Fkey      110e8b30   misc:rtglobal.obj
 0003:00007b34       _EndTranMsg                110e8b34   misc:rtglobal.obj
 0003:00007b38       _RT_basescreencolor        110e8b38   misc:rtglobal.obj
 0003:00007b3c       _RT_status_color           110e8b3c   misc:rtglobal.obj
 0003:00007b40       _RT_nopverbmsg             110e8b40   misc:rtglobal.obj
 0003:00007b44       _RT_printdelayseconds      110e8b44   misc:rtglobal.obj
 0003:00007b48       _RT_wincomcompatible       110e8b48   misc:rtglobal.obj
 0003:00007b4c       _Maxfontnum                110e8b4c   misc:rtglobal.obj
 0003:00007b50       _RTapplication             110e8b50   misc:rtglobal.obj
 0003:00007b54       _RT_keyboard_mode          110e8b54   misc:rtglobal.obj
 0003:00007b58       _RT_screen_mode            110e8b58   misc:rtglobal.obj
 0003:00007b5c       _RT_check_timers           110e8b5c   misc:rtglobal.obj
 0003:00007bd0       _daycount_table            110e8bd0   misc:dates.obj
 0003:00007c6c       _date_std_edit             110e8c6c   misc:dates.obj
 0003:00007c70       _first_day_of_week         110e8c70   misc:dates.obj
 0003:00007ce0       _blocked_on_getkey         110e8ce0   misc:rtrawkey.obj
 0003:00007ce4       _WCnum                     110e8ce4   misc:rtrawkey.obj
 0003:00007cf8       _ATtable                   110e8cf8   misc:rtrawkey.obj
 0003:00007ee8       _TruncateFlag              110e8ee8   misc:convers.obj
 0003:00007eec       _DecimalInsertion          110e8eec   misc:convers.obj
 0003:00007ef0       _MoneySign                 110e8ef0   misc:convers.obj
 0003:00007ef4       _MoneyString               110e8ef4   misc:convers.obj
 0003:00007ef8       _CalcEditPattern           110e8ef8   misc:convers.obj
 0003:00007f20       _XMoveCursor               110e8f20   misc:convers.obj
 0003:00007f24       _LanguageSep               110e8f24   misc:convers.obj
 0003:00007f28       _LanguageIndex             110e8f28   misc:convers.obj
 0003:00007f7c       _edit_chars                110e8f7c   misc:editfill.obj
 0003:00007f80       _fill_chars                110e8f80   misc:editfill.obj
 0003:00007f84       _trail_chars               110e8f84   misc:editfill.obj
 0003:00007f88       _surround_chars            110e8f88   misc:editfill.obj
 0003:00007f8c       _default_date_edit         110e8f8c   misc:editfill.obj
 0003:00007f90       _date_disp_chars           110e8f90   misc:editfill.obj
 0003:000080e0       _msg_table                 110e90e0   misc:msgname.obj
 0003:00009a20       _Want_Go_Down_Msg          110eaa20   misc:er.obj
 0003:00009ec0       _opterr                    110eaec0   misc:getopt.obj
 0003:00009ec4       _optind                    110eaec4   misc:getopt.obj
 0003:0000a408       _etempx                    110eb408   pcl:pcl2xxx.obj
 0003:0000a414       ___win32sflag              110eb414   MSVCRT:atonexit.obj
 0003:0000a470       _Once_CB                   110eb470   cbtree:btvarlen.obj
 0003:0000a688       _errmsg                    110eb688   cbtree:ckerror.obj
 0003:0000a6b0       _optypes                   110eb6b0   cbtree:ckerror.obj
 0003:0000a770       _noptypes                  110eb770   cbtree:ckerror.obj
 0003:0000a778       _cberrmsg                  110eb778   cbtree:ckerror.obj
 0003:0000aa4c       _sp                        110eba4c   cbtree:stackop.obj
 0003:0000ac40       _Wflag                     110ebc40   pcl:compile.obj
 0003:0000ac44       _Strict                    110ebc44   pcl:compile.obj
 0003:0000aff0       _labloc                    110ebff0   pcl:decomp.obj
 0003:0000aff4       _noprint                   110ebff4   pcl:decomp.obj
 0003:0000aff8       _osflag                    110ebff8   pcl:decomp.obj
 0003:0000affc       _DXflag                    110ebffc   pcl:decomp.obj
 0003:0000b000       _Aflag                     110ec000   pcl:decomp.obj
 0003:0000b004       _LOCAL_allocates_OK        110ec004   pcl:decomp.obj
 0003:0000b728       _compile_dict              110ec728   pcl:lookup.obj
 0003:0002fd80       _RTsignal_completion       11110d80   <common>
 0003:0002fd90       _RTPal                     11110d90   <common>
 0003:0002fe90       _cyClient                  11110e90   <common>
 0003:0002fe94       _RT_TitleBarHeight         11110e94   <common>
 0003:0002fe98       _cxCaps                    11110e98   <common>
 0003:0002fe9a       _cxChar                    11110e9a   <common>
 0003:0002fe9c       _screen_saved              11110e9c   <common>
 0003:0002fea0       _hpalCurrentBMP            11110ea0   <common>
 0003:0002fea4       _RT_BorderWidth            11110ea4   <common>
 0003:0002fea8       _globlpcmdline             11110ea8   <common>
 0003:0002feac       _hInst                     11110eac   <common>
 0003:0002feb0       _globhinstance             11110eb0   <common>
 0003:0002feb4       _globncmdshow              11110eb4   <common>
 0003:0002feb8       _RT_BorderHeight           11110eb8   <common>
 0003:0002febc       _cxClient                  11110ebc   <common>
 0003:0002fec0       _hprevinstance             11110ec0   <common>
 0003:0002fec4       _DefNumPal                 11110ec4   <common>
 0003:0002fec8       _FontCache                 11110ec8   <common>
 0003:0002fed0       _iscbr_fonts               11110ed0   <common>
 0003:000301f0       _RTversion                 111111f0   <common>
 0003:00030200       _blanks                    11111200   <common>
 0003:00030300       _PCLapplno                 11111300   <common>
 0003:00030304       _OFBflags                  11111304   <common>
 0003:00030308       _CurrPPbase                11111308   <common>
 0003:0003030c       _CurrInstr                 1111130c   <common>
 0003:00030310       _man                       11111310   <common>
 0003:00030364       _time_of_day               11111364   <common>
 0003:00030370       _Sline                     11111370   <common>
 0003:000303c4       _RTwid                     111113c4   <common>
 0003:000303c8       _system_date               111113c8   <common>
 0003:000303cc       _SCequality                111113cc   <common>
 0003:000303ce       _Aux_id                    111113ce   <common>
 0003:000303d0       _szServiceBuff             111113d0   <common>
 0003:000304e0       _szDataBuff                111114e0   <common>
 0003:00030f10       _szTopicBuff               11111f10   <common>
 0003:00031020       _szItemBuff                11112020   <common>
 0003:00031124       _CdsEnv                    11112124   <common>
 0003:00031128       _DDerrno                   11112128   <common>
 0003:00031130       _RT_context_name           11112130   <common>
 0003:00031150       _config                    11112150   <common>
 0003:00031352       _Batch_error_proc          11112352   <common>
 0003:00031354       _Fieldmouse                11112354   <common>
 0003:00031358       _Fieldshift                11112358   <common>
 0003:00031360       _Fieldpoint                11112360   <common>
 0003:00031368       _oldsubeditproc            11112368   <common>
 0003:0003136c       _NC_inupdate               1111236c   <common>
 0003:00031370       _oldcomboboxproc           11112370   <common>
 0003:00031374       _BackEndOnly               11112374   <common>
 0003:00031380       _val                       11112380   <common>
 0003:000313e0       _locklist                  111123e0   <common>
 0003:00031430       _lockptr                   11112430   <common>
 0003:00031434       _cldebug                   11112434   <common>
 0003:00031440       _Gbuf                      11112440   <common>
 0003:000314a4       _Client_env                111124a4   <common>
 0003:000314a8       _Env_Count                 111124a8   <common>
 0003:000314ac       _Cm_buff_count             111124ac   <common>
 0003:000314b0       _rtdll                     111124b0   <common>
 0003:000314b4       _user_tables               111124b4   <common>
 0003:000314b8       _num_user_tables           111124b8   <common>
 0003:000314bc       _comm_res                  111124bc   <common>
 0003:000314c0       _tcb_head                  111124c0   <common>
 0003:000314d0       _log_lock                  111124d0   <common>
 0003:000314e8       _comm_tbuf                 111124e8   <common>
 0003:000314ec       _Comm_ev_active            111124ec   <common>
 0003:000314ee       _Comm_nofilter             111124ee   <common>
 0003:000314f0       _comm_mutex                111124f0   <common>
 0003:000314f4       _rcb_on_waitformsg         111124f4   <common>
 0003:00031500       _dd_start_path             11112500   <common>
 0003:00031610       _DDopenerror               11112610   <common>
 0003:00031810       _dd                        11112810   <common>
 0003:000324e0       _Display                   111134e0   <common>
 0003:000324f8       _gbBitmapReliefBtn         111134f8   <common>
 0003:000324fc       _textcolor                 111134fc   <common>
 0003:00032500       _achFileName               11113500   <common>
 0003:00032580       _ptSize                    11113580   <common>
 0003:00032584       _backcolor                 11113584   <common>
 0003:00032588       _Cellwidth                 11113588   <common>
 0003:0003258a       _DL_inupdate               1111358a   <common>
 0003:0003258c       _DLfree                    1111358c   <common>
 0003:00032590       _SLstringfree              11113590   <common>
 0003:00032594       _PLFOCUSfreebase           11113594   <common>
 0003:00032598       _SLcontrolfree             11113598   <common>
 0003:0003259c       _SLfree                    1111359c   <common>
 0003:000325a0       _NBservername              111135a0   <common>
 0003:000325e0       _NBlognetname              111135e0   <common>
 0003:000325ec       _mcnsockerror              111135ec   <common>
 0003:000325f0       _MCNbeating_thread_handle  111135f0   <common>
 0003:000325f4       _cverr                     111135f4   <common>
 0003:000325f8       _optarg                    111135f8   <common>
 0003:000325fc       _optopt                    111135fc   <common>
 0003:00032600       _eopat                     11113600   <common>
 0003:00032630       _bopat                     11113630   <common>
 0003:00032658       _FontTable                 11113658   <common>
 0003:0003265c       _WinFontTable              1111365c   <common>
 0003:00032660       _NumWinFonts               11113660   <common>
 0003:00032664       _NumFonts                  11113664   <common>
 0003:00032668       _Clean_up                  11113668   <common>
 0003:0003266c       _Century                   1111366c   <common>
 0003:0003266e       _Year                      1111366e   <common>
 0003:00032670       _cal_lines                 11113670   <common>
 0003:00032690       _cal_result                11113690   <common>
 0003:00032748       _Dup_list                  11113748   <common>
 0003:00032750       _PCLstatrect               11113750   <common>
 0003:00032760       _hStdin                    11113760   <common>
 0003:00032764       _RTmouse_proc_active       11113764   <common>
 0003:00032768       _Tran_current              11113768   <common>
 0003:0003276c       _RTprtmsg_list             1111376c   <common>
 0003:00032770       _Current_screen            11113770   <common>
 0003:00032774       _Printdevice               11113774   <common>
 0003:00032778       _Timing_wanted             11113778   <common>
 0003:00032780       _pickexitkeys              11113780   <common>
 0003:00032794       _DebugKeys                 11113794   <common>
 0003:00032798       _RT_SpaceBold              11113798   <common>
 0003:0003279c       _User_fyi_proc             1111379c   <common>
 0003:000327a0       _Argument_errors           111137a0   <common>
 0003:000327a4       _RTerr_cleanup             111137a4   <common>
 0003:000327a8       _RT_TEfield_freelist       111137a8   <common>
 0003:000327ac       _rtHeight                  111137ac   <common>
 0003:000327b0       _List_tran_ano             111137b0   <common>
 0003:000327b4       _RT_fieldrules             111137b4   <common>
 0003:000327b8       _Nav_current               111137b8   <common>
 0003:000327bc       _RTmenuoption              111137bc   <common>
 0003:000327c0       _Trap_reset                111137c0   <common>
 0003:000327c4       _Timeoflastkey             111137c4   <common>
 0003:000327c8       _RT_removing_popup         111137c8   <common>
 0003:000327cc       _PL_itemdepth_data         111137cc   <common>
 0003:000327d0       _theBackColor              111137d0   <common>
 0003:000327d4       _PCLerrors                 111137d4   <common>
 0003:000327d8       _defInsertMode             111137d8   <common>
 0003:000327da       _RT_reliefradiobtn         111137da   <common>
 0003:000327dc       _KEYbase                   111137dc   <common>
 0003:000327e0       _RT_PPlusCompatible        111137e0   <common>
 0003:000327e4       _RTmouse_proc              111137e4   <common>
 0003:000327e8       _Discard_resetkey          111137e8   <common>
 0003:000327ec       _Nextfield                 111137ec   <common>
 0003:000327f0       _Tran_ano                  111137f0   <common>
 0003:000327f4       _WC_watchon                111137f4   <common>
 0003:00032800       _PCLdirty                  11113800   <common>
 0003:00032810       _CDSretval                 11113810   <common>
 0003:00032814       _PCLerrmsg                 11113814   <common>
 0003:00032818       _List_tran_ino             11113818   <common>
 0003:0003281c       _Picklist_color            1111381c   <common>
 0003:0003281e       _RT_StretchField           1111381e   <common>
 0003:00032820       _NoCDServer                11113820   <common>
 0003:00032824       _Currenttran               11113824   <common>
 0003:00032828       _PCLscreen                 11113828   <common>
 0003:0003282c       _RT_sculpturedbox          1111382c   <common>
 0003:00032830       _RT_ControlDelay           11113830   <common>
 0003:00032840       _PCLrect                   11113840   <common>
 0003:00032850       _RTfyimsg_list             11113850   <common>
 0003:00032854       _RTsuspend_reset           11113854   <common>
 0003:00032856       _RT_pickdc                 11113856   <common>
 0003:00032858       _RT_timer_freebase         11113858   <common>
 0003:0003285c       _NoCommServer              1111385c   <common>
 0003:0003285e       _RT_cursor_style           1111385e   <common>
 0003:00032860       _Tran_ino                  11113860   <common>
 0003:00032864       _Tutorial_field2           11113864   <common>
 0003:00032868       _Tutorial_field1           11113868   <common>
 0003:0003286c       _Screen_zero               1111386c   <common>
 0003:00032870       _KEYrec                    11113870   <common>
 0003:00032874       _Currentfield              11113874   <common>
 0003:00032878       _theTextMode               11113878   <common>
 0003:0003287c       _RT_ControlSound1          1111387c   <common>
 0003:00032880       _RT_ControlSound2          11113880   <common>
 0003:00032884       _FYI_color                 11113884   <common>
 0003:00032888       _KEYset                    11113888   <common>
 0003:0003288c       _RT_EditFields             1111388c   <common>
 0003:00032890       _theTextExtra              11113890   <common>
 0003:00032894       _PCLfyimsg                 11113894   <common>
 0003:00032898       _PCLkill_err               11113898   <common>
 0003:0003289a       _RT_timer_event            1111389a   <common>
 0003:0003289c       _Nav_base                  1111389c   <common>
 0003:000328a0       _Tran_base                 111138a0   <common>
 0003:000328a4       _RT_TEfield_list           111138a4   <common>
 0003:000328a8       _Retval                    111138a8   <common>
 0003:000328ac       _RT_current_proc           111138ac   <common>
 0003:000328b0       _Breakpoint                111138b0   <common>
 0003:000329b4       _hDefaultPal               111139b4   <common>
 0003:000329b8       _PCLkill_fyi               111139b8   <common>
 0003:000329bc       _User_error_proc           111139bc   <common>
 0003:000329c0       _User_nowait_gspread_proc  111139c0   <common>
 0003:000329c4       _DIBWndActive              111139c4   <common>
 0003:000329c6       _Calendar_color            111139c6   <common>
 0003:000329c8       _RT_cpu_node               111139c8   <common>
 0003:000329cc       _Tmenukey                  111139cc   <common>
 0003:000329d0       _RTenv                     111139d0   <common>
 0003:00032a10       _thePenWidth               11113a10   <common>
 0003:00032a12       _WC_ignoremouse            11113a12   <common>
 0003:00032a14       _Block_bound               11113a14   <common>
 0003:00032a16       _RT_iconpbborder           11113a16   <common>
 0003:00032a18       _theForeColor              11113a18   <common>
 0003:00032a1c       _CDSlockretry              11113a1c   <common>
 0003:00032a20       _RTrect                    11113a20   <common>
 0003:00032a30       _SingleStep                11113a30   <common>
 0003:00032a34       _RTerrmsg_list             11113a34   <common>
 0003:00032a38       _thePenHeight              11113a38   <common>
 0003:00032a3a       _RTfyi_cleanup             11113a3a   <common>
 0003:00032a3b       _RT_winpushbuttons         11113a3b   <common>
 0003:00032a3c       _RTsysinfo                 11113a3c   <common>
 0003:00032a40       _RT_whiteonwhite           11113a40   <common>
 0003:00032a44       _CDSerrmsg                 11113a44   <common>
 0003:00032a48       _RT_window_node            11113a48   <common>
 0003:00032a4c       _Cleanstart_ano            11113a4c   <common>
 0003:00032a4e       _theFace                   11113a4e   <common>
 0003:00032a50       _LocalPrintIndex           11113a50   <common>
 0003:00032a60       _Whichuser                 11113a60   <common>
 0003:00032a74       _Last_midnight             11113a74   <common>
 0003:00032a78       _cursor_on                 11113a78   <common>
 0003:00032a7a       _SystemDriver              11113a7a   <common>
 0003:00032a7c       _RT_boxfieldborder         11113a7c   <common>
 0003:00032a7d       _PUM_ano                   11113a7d   <common>
 0003:00032a7e       _RT_pcltype                11113a7e   <common>
 0003:00032a80       _PUM_ddr                   11113a80   <common>
 0003:00032a84       _Fieldval_with_mouse       11113a84   <common>
 0003:00032a88       _COMMretval                11113a88   <common>
 0003:00032a8c       _INDbase                   11113a8c   <common>
 0003:00032a90       _theSize                   11113a90   <common>
 0003:00032a92       _Calculator_color          11113a92   <common>
 0003:00032a94       _RT_timer_head             11113a94   <common>
 0003:00032a98       _RTvrespxls                11113a98   <common>
 0003:00032aa0       _PBpoint                   11113aa0   <common>
 0003:00032aa8       _Tran_freebase             11113aa8   <common>
 0003:00032aac       _PRTretval                 11113aac   <common>
 0003:00032ab0       _hscroll_val               11113ab0   <common>
 0003:00032ac0       _Tonode                    11113ac0   <common>
 0003:00032ad4       _INDfreelist               11113ad4   <common>
 0003:00032ad8       _WC_interval               11113ad8   <common>
 0003:00032adc       _running_under_IBA         11113adc   <common>
 0003:00032ae0       _RT_ignoremouse            11113ae0   <common>
 0003:00032ae2       _PCLtrace                  11113ae2   <common>
 0003:00032ae4       _Box_color                 11113ae4   <common>
 0003:00032ae8       _RTfyi_field               11113ae8   <common>
 0003:00032aec       _CDSservername             11113aec   <common>
 0003:00032af0       _Screen_base               11113af0   <common>
 0003:00032af4       _Winmenu_flag              11113af4   <common>
 0003:00032af8       _hWnd                      11113af8   <common>
 0003:00032afc       _Cleanstart_ino            11113afc   <common>
 0003:00032b00       _Prtbuflen                 11113b00   <common>
 0003:00032b04       _RTbad_op_proc             11113b04   <common>
 0003:00032b08       _Popup_color               11113b08   <common>
 0003:00032b09       _RT_reliefcheckbox         11113b09   <common>
 0003:00032b0a       _PUM_ino                   11113b0a   <common>
 0003:00032b0c       _rtWidth                   11113b0c   <common>
 0003:00032b0e       _rtInsertMode              11113b0e   <common>
 0003:00032b10       _PCLstatus                 11113b10   <common>
 0003:00032b14       _Breakpoint_happened       11113b14   <common>
 0003:00032b18       _Tran_zero                 11113b18   <common>
 0003:00032b20       _Whichsystem               11113b20   <common>
 0003:00032b48       _LTPPhead                  11113b48   <common>
 0003:00032b4c       _WC_purge                  11113b4c   <common>
 0003:00032b4e       _vscroll_val               11113b4e   <common>
 0003:00032b50       _Time_since_1970           11113b50   <common>
 0003:00032b54       _SRinterval                11113b54   <common>
 0003:00032b58       _Nav_freebase              11113b58   <common>
 0003:00032b5c       _theFont                   11113b5c   <common>
 0003:00032b60       _RTflags                   11113b60   <common>
 0003:00032b64       _Prt                       11113b64   <common>
 0003:00032b68       _RTmousehook               11113b68   <common>
 0003:00032b6c       _Datacollect_color         11113b6c   <common>
 0003:00032b70       _CSRstring                 11113b70   <common>
 0003:00032b74       _Menu_color                11113b74   <common>
 0003:00032b76       _thePenMode                11113b76   <common>
 0003:00032b78       _RTreset                   11113b78   <common>
 0003:00032b7c       _LTPPfree                  11113b7c   <common>
 0003:00032b80       _thePenPat                 11113b80   <common>
 0003:00032b84       _LastMenu                  11113b84   <common>
 0003:00032b88       _TNLevel                   11113b88   <common>
 0003:00032b8a       _RT_active_idle_timer      11113b8a   <common>
 0003:00032b8c       _Currentdlp                11113b8c   <common>
 0003:00032b90       _PCLname                   11113b90   <common>
 0003:00032bbc       _RTpic_mouse_goaway        11113bbc   <common>
 0003:00032bc0       _DDEretval                 11113bc0   <common>
 0003:00032bd0       _PCLcursor                 11113bd0   <common>
 0003:00032be0       _Help_color                11113be0   <common>
 0003:00032be2       _theSpaceExtra             11113be2   <common>
 0003:00032bf0       _fkeytable                 11113bf0   <common>
 0003:00032e00       _Error_color               11113e00   <common>
 0003:00032e04       _PCLfields                 11113e04   <common>
 0003:00032e08       _RT_pickspacing            11113e08   <common>
 0003:00032e0c       _RTerrmsg_nowait           11113e0c   <common>
 0003:00032e10       _RTprtmsg_nowait           11113e10   <common>
 0003:00032e14       _hAccelTable               11113e14   <common>
 0003:00032e18       _PCL_entry_count           11113e18   <common>
 0003:00032e1c       _Lastkey                   11113e1c   <common>
 0003:00032e20       _Dolongjump                11113e20   <common>
 0003:00032e22       _Current_color             11113e22   <common>
 0003:00032e24       _RTerrno                   11113e24   <common>
 0003:00032e28       _hCSRdll                   11113e28   <common>
 0003:00032e30       _lextable                  11113e30   <common>
 0003:00032f30       _Pass                      11113f30   <common>
 0003:00032f40       _gendlabels                11113f40   <common>
 0003:00032fa4       _ip                        11113fa4   <common>
 0003:00032fb0       _outline                   11113fb0   <common>
 0003:00035398       _num_args                  11116398   <common>
 0003:000353a0       _PCLscrdef                 111163a0   <common>
 0003:000353c0       _PCLdocdef                 111163c0   <common>
 0003:000353d8       _PCLlineno                 111163d8   <common>
 0003:000353dc       _last_item                 111163dc   <common>
 0003:000353e0       _last_fp                   111163e0   <common>
 0003:000353e4       _last_appl                 111163e4   <common>
 0003:000353e8       _PCLcurrentline            111163e8   <common>
 0003:000353ec       _wcount                    111163ec   <common>
 0003:000353f0       _FWDrefd                   111163f0   <common>
 0003:00035400       _PCLfilename               11116400   <common>
 0003:00036400       _lx                        11117400   <common>
 0003:00036404       _curr_loc                  11117404   <common>
 0003:00036408       _Autodef                   11117408   <common>
 0003:00036410       _PCLlistdef                11117410   <common>
 0003:0003641c       _last_obj                  1111741c   <common>
 0003:00036420       _expr_result               11117420   <common>
 0003:00036430       _etempbuff                 11117430   <common>
 0003:0003652c       __adjust_fdiv              1111752c   <common>
 0003:00036530       ___onexitend               11117530   <common>
 0003:00036534       ___onexitbegin             11117534   <common>
 0003:00036538       __pRawDllMain              11117538   <common>
 0004:00000000       __IMPORT_DESCRIPTOR_KERNEL32 11118000   kernel32:KERNEL32.dll
 0004:00000014       __IMPORT_DESCRIPTOR_USER32 11118014   user32:USER32.dll
 0004:00000028       __IMPORT_DESCRIPTOR_GDI32  11118028   gdi32:GDI32.dll
 0004:0000003c       __IMPORT_DESCRIPTOR_WINSPOOL 1111803c   winspool:WINSPOOL.DRV
 0004:00000050       __IMPORT_DESCRIPTOR_ADVAPI32 11118050   advapi32:ADVAPI32.dll
 0004:00000064       __IMPORT_DESCRIPTOR_WINMM  11118064   winmm:WINMM.dll
 0004:00000078       __IMPORT_DESCRIPTOR_cslib  11118078   cslib:cslib.dll
 0004:0000008c       __IMPORT_DESCRIPTOR_MSVCRT 1111808c   MSVCRT:MSVCRT.dll
 0004:000000a0       __IMPORT_DESCRIPTOR_WSOCK32 111180a0   wsock32:WSOCK32.dll
 0004:000000b4       __IMPORT_DESCRIPTOR_VERSION 111180b4   version:VERSION.dll
 0004:000000c8       __NULL_IMPORT_DESCRIPTOR   111180c8   kernel32:KERNEL32.dll
 0004:000007b8       __imp__RegOpenKeyExA@20    111187b8   advapi32:ADVAPI32.dll
 0004:000007bc       __imp__RegQueryValueExA@24 111187bc   advapi32:ADVAPI32.dll
 0004:000007c0       __imp__RegCloseKey@4       111187c0   advapi32:ADVAPI32.dll
 0004:000007c4       __imp__RegisterEventSourceA@8 111187c4   advapi32:ADVAPI32.dll
 0004:000007c8       __imp__ReportEventA@36     111187c8   advapi32:ADVAPI32.dll
 0004:000007cc       __imp__GetUserNameA@8      111187cc   advapi32:ADVAPI32.dll
 0004:000007d0       \177ADVAPI32_NULL_THUNK_DATA 111187d0   advapi32:ADVAPI32.dll
 0004:000007d4       __imp__SetTextColor@8      111187d4   gdi32:GDI32.dll
 0004:000007d8       __imp__SetStretchBltMode@8 111187d8   gdi32:GDI32.dll
 0004:000007dc       __imp__GetTextAlign@4      111187dc   gdi32:GDI32.dll
 0004:000007e0       __imp__SetTextJustification@12 111187e0   gdi32:GDI32.dll
 0004:000007e4       __imp__TextOutA@20         111187e4   gdi32:GDI32.dll
 0004:000007e8       __imp__CreateFontA@56      111187e8   gdi32:GDI32.dll
 0004:000007ec       __imp__DeleteObject@4      111187ec   gdi32:GDI32.dll
 0004:000007f0       __imp__CreateSolidBrush@4  111187f0   gdi32:GDI32.dll
 0004:000007f4       __imp__Escape@20           111187f4   gdi32:GDI32.dll
 0004:000007f8       __imp__GetTextMetricsA@8   111187f8   gdi32:GDI32.dll
 0004:000007fc       __imp__GetDeviceCaps@8     111187fc   gdi32:GDI32.dll
 0004:00000800       __imp__GetTextExtentPoint32A@16 11118800   gdi32:GDI32.dll
 0004:00000804       __imp__EndPage@4           11118804   gdi32:GDI32.dll
 0004:00000808       __imp__AbortDoc@4          11118808   gdi32:GDI32.dll
 0004:0000080c       __imp__GdiFlush@0          1111880c   gdi32:GDI32.dll
 0004:00000810       __imp__CreateHatchBrush@8  11118810   gdi32:GDI32.dll
 0004:00000814       __imp__GetStockObject@4    11118814   gdi32:GDI32.dll
 0004:00000818       __imp__MoveToEx@16         11118818   gdi32:GDI32.dll
 0004:0000081c       __imp__ExtCreatePen@20     1111881c   gdi32:GDI32.dll
 0004:00000820       __imp__SetBkMode@8         11118820   gdi32:GDI32.dll
 0004:00000824       __imp__SelectObject@8      11118824   gdi32:GDI32.dll
 0004:00000828       __imp__ResetDCA@8          11118828   gdi32:GDI32.dll
 0004:0000082c       __imp__StartDocA@8         1111882c   gdi32:GDI32.dll
 0004:00000830       __imp__SetTextAlign@8      11118830   gdi32:GDI32.dll
 0004:00000834       __imp__CreateDCA@16        11118834   gdi32:GDI32.dll
 0004:00000838       __imp__StartPage@4         11118838   gdi32:GDI32.dll
 0004:0000083c       __imp__SetAbortProc@8      1111883c   gdi32:GDI32.dll
 0004:00000840       __imp__EndDoc@4            11118840   gdi32:GDI32.dll
 0004:00000844       __imp__CreateDIBitmap@24   11118844   gdi32:GDI32.dll
 0004:00000848       __imp__GetDIBits@28        11118848   gdi32:GDI32.dll
 0004:0000084c       __imp__GetPaletteEntries@16 1111884c   gdi32:GDI32.dll
 0004:00000850       __imp__GetBitmapDimensionEx@8 11118850   gdi32:GDI32.dll
 0004:00000854       __imp__CreateBitmapIndirect@4 11118854   gdi32:GDI32.dll
 0004:00000858       __imp__SetBitmapDimensionEx@16 11118858   gdi32:GDI32.dll
 0004:0000085c       __imp__CreatePatternBrush@4 1111885c   gdi32:GDI32.dll
 0004:00000860       __imp__SetROP2@8           11118860   gdi32:GDI32.dll
 0004:00000864       __imp__PaintRgn@8          11118864   gdi32:GDI32.dll
 0004:00000868       __imp__SetPolyFillMode@8   11118868   gdi32:GDI32.dll
 0004:0000086c       __imp__Polygon@12          1111886c   gdi32:GDI32.dll
 0004:00000870       __imp__CreateCompatibleBitmap@12 11118870   gdi32:GDI32.dll
 0004:00000874       __imp__Ellipse@20          11118874   gdi32:GDI32.dll
 0004:00000878       __imp__CreateRectRgnIndirect@4 11118878   gdi32:GDI32.dll
 0004:0000087c       __imp__CreateRectRgn@16    1111887c   gdi32:GDI32.dll
 0004:00000880       __imp__GetClipRgn@8        11118880   gdi32:GDI32.dll
 0004:00000884       __imp__SelectClipRgn@8     11118884   gdi32:GDI32.dll
 0004:00000888       __imp__IntersectClipRect@20 11118888   gdi32:GDI32.dll
 0004:0000088c       __imp__GetTextExtentExPointA@28 1111888c   gdi32:GDI32.dll
 0004:00000890       __imp__SetWindowOrgEx@16   11118890   gdi32:GDI32.dll
 0004:00000894       __imp__SetPaletteEntries@16 11118894   gdi32:GDI32.dll
 0004:00000898       __imp__CreatePalette@4     11118898   gdi32:GDI32.dll
 0004:0000089c       __imp__ExtTextOutA@32      1111889c   gdi32:GDI32.dll
 0004:000008a0       __imp__SetWindowExtEx@16   111188a0   gdi32:GDI32.dll
 0004:000008a4       __imp__DeleteDC@4          111188a4   gdi32:GDI32.dll
 0004:000008a8       __imp__GetTextExtentPointA@16 111188a8   gdi32:GDI32.dll
 0004:000008ac       __imp__GetTextCharacterExtra@4 111188ac   gdi32:GDI32.dll
 0004:000008b0       __imp__SetTextCharacterExtra@8 111188b0   gdi32:GDI32.dll
 0004:000008b4       __imp__GetTextColor@4      111188b4   gdi32:GDI32.dll
 0004:000008b8       __imp__GetBkColor@4        111188b8   gdi32:GDI32.dll
 0004:000008bc       __imp__BitBlt@36           111188bc   gdi32:GDI32.dll
 0004:000008c0       __imp__CreatePen@12        111188c0   gdi32:GDI32.dll
 0004:000008c4       __imp__SetBkColor@8        111188c4   gdi32:GDI32.dll
 0004:000008c8       __imp__SelectPalette@12    111188c8   gdi32:GDI32.dll
 0004:000008cc       __imp__RealizePalette@4    111188cc   gdi32:GDI32.dll
 0004:000008d0       __imp__GetObjectA@12       111188d0   gdi32:GDI32.dll
 0004:000008d4       __imp__StretchDIBits@52    111188d4   gdi32:GDI32.dll
 0004:000008d8       __imp__GetBitmapBits@12    111188d8   gdi32:GDI32.dll
 0004:000008dc       __imp__CreateBitmap@20     111188dc   gdi32:GDI32.dll
 0004:000008e0       __imp__CreateCompatibleDC@4 111188e0   gdi32:GDI32.dll
 0004:000008e4       __imp__StretchBlt@44       111188e4   gdi32:GDI32.dll
 0004:000008e8       __imp__EnumFontsA@16       111188e8   gdi32:GDI32.dll
 0004:000008ec       __imp__CreateFontIndirectA@4 111188ec   gdi32:GDI32.dll
 0004:000008f0       __imp__LPtoDP@12           111188f0   gdi32:GDI32.dll
 0004:000008f4       __imp__LineTo@12           111188f4   gdi32:GDI32.dll
 0004:000008f8       __imp__SetViewportExtEx@16 111188f8   gdi32:GDI32.dll
 0004:000008fc       __imp__SetViewportOrgEx@16 111188fc   gdi32:GDI32.dll
 0004:00000900       __imp__SetMapMode@8        11118900   gdi32:GDI32.dll
 0004:00000904       \177GDI32_NULL_THUNK_DATA  11118904   gdi32:GDI32.dll
 0004:00000908       __imp__GetCurrentProcessId@0 11118908   kernel32:KERNEL32.dll
 0004:0000090c       __imp__GetConsoleTitleA@8  1111890c   kernel32:KERNEL32.dll
 0004:00000910       __imp__SetConsoleMode@8    11118910   kernel32:KERNEL32.dll
 0004:00000914       __imp__SetConsoleTitleA@4  11118914   kernel32:KERNEL32.dll
 0004:00000918       __imp__ReadConsoleA@20     11118918   kernel32:KERNEL32.dll
 0004:0000091c       __imp__AllocConsole@0      1111891c   kernel32:KERNEL32.dll
 0004:00000920       __imp__GetPrivateProfileStringA@24 11118920   kernel32:KERNEL32.dll
 0004:00000924       __imp__GetCurrentThreadId@0 11118924   kernel32:KERNEL32.dll
 0004:00000928       __imp__OpenFile@12         11118928   kernel32:KERNEL32.dll
 0004:0000092c       __imp__SetConsoleScreenBufferSize@8 1111892c   kernel32:KERNEL32.dll
 0004:00000930       __imp__GetStdHandle@4      11118930   kernel32:KERNEL32.dll
 0004:00000934       __imp__GetComputerNameA@8  11118934   kernel32:KERNEL32.dll
 0004:00000938       __imp__GetVersion@0        11118938   kernel32:KERNEL32.dll
 0004:0000093c       __imp__ExitProcess@4       1111893c   kernel32:KERNEL32.dll
 0004:00000940       __imp__GetExitCodeProcess@8 11118940   kernel32:KERNEL32.dll
 0004:00000944       __imp__CreateProcessA@40   11118944   kernel32:KERNEL32.dll
 0004:00000948       __imp__WaitForSingleObject@8 11118948   kernel32:KERNEL32.dll
 0004:0000094c       __imp__GlobalLock@4        1111894c   kernel32:KERNEL32.dll
 0004:00000950       __imp__GlobalSize@4        11118950   kernel32:KERNEL32.dll
 0004:00000954       __imp__GetTickCount@0      11118954   kernel32:KERNEL32.dll
 0004:00000958       __imp__GetVersionExA@4     11118958   kernel32:KERNEL32.dll
 0004:0000095c       __imp__GlobalUnlock@4      1111895c   kernel32:KERNEL32.dll
 0004:00000960       __imp__GetLastError@0      11118960   kernel32:KERNEL32.dll
 0004:00000964       __imp__FreeLibrary@4       11118964   kernel32:KERNEL32.dll
 0004:00000968       __imp__LocalFree@4         11118968   kernel32:KERNEL32.dll
 0004:0000096c       __imp__GlobalAlloc@8       1111896c   kernel32:KERNEL32.dll
 0004:00000970       __imp__lstrlenA@4          11118970   kernel32:KERNEL32.dll
 0004:00000974       __imp__GlobalFree@4        11118974   kernel32:KERNEL32.dll
 0004:00000978       __imp__lstrcpyA@8          11118978   kernel32:KERNEL32.dll
 0004:0000097c       __imp__GetProcAddress@8    1111897c   kernel32:KERNEL32.dll
 0004:00000980       __imp__GetSystemDefaultLangID@0 11118980   kernel32:KERNEL32.dll
 0004:00000984       __imp__GetLocaleInfoA@16   11118984   kernel32:KERNEL32.dll
 0004:00000988       __imp__CreateFileA@28      11118988   kernel32:KERNEL32.dll
 0004:0000098c       __imp__GetModuleFileNameA@12 1111898c   kernel32:KERNEL32.dll
 0004:00000990       __imp__FlushFileBuffers@4  11118990   kernel32:KERNEL32.dll
 0004:00000994       __imp__WriteFile@20        11118994   kernel32:KERNEL32.dll
 0004:00000998       __imp__TerminateThread@8   11118998   kernel32:KERNEL32.dll
 0004:0000099c       __imp__CreateThread@24     1111899c   kernel32:KERNEL32.dll
 0004:000009a0       __imp__SetFilePointer@16   111189a0   kernel32:KERNEL32.dll
 0004:000009a4       __imp__ReadFile@20         111189a4   kernel32:KERNEL32.dll
 0004:000009a8       __imp__CloseHandle@4       111189a8   kernel32:KERNEL32.dll
 0004:000009ac       __imp___lwrite@12          111189ac   kernel32:KERNEL32.dll
 0004:000009b0       __imp___llseek@12          111189b0   kernel32:KERNEL32.dll
 0004:000009b4       __imp__LocalAlloc@8        111189b4   kernel32:KERNEL32.dll
 0004:000009b8       __imp__lstrcatA@8          111189b8   kernel32:KERNEL32.dll
 0004:000009bc       __imp__GlobalReAlloc@12    111189bc   kernel32:KERNEL32.dll
 0004:000009c0       __imp___lread@12           111189c0   kernel32:KERNEL32.dll
 0004:000009c4       __imp___lclose@4           111189c4   kernel32:KERNEL32.dll
 0004:000009c8       __imp__GetEnvironmentVariableA@12 111189c8   kernel32:KERNEL32.dll
 0004:000009cc       __imp__SetEnvironmentVariableA@8 111189cc   kernel32:KERNEL32.dll
 0004:000009d0       __imp__GetModuleHandleA@4  111189d0   kernel32:KERNEL32.dll
 0004:000009d4       __imp__CreateMutexA@12     111189d4   kernel32:KERNEL32.dll
 0004:000009d8       __imp__ReleaseMutex@4      111189d8   kernel32:KERNEL32.dll
 0004:000009dc       __imp__SetEvent@4          111189dc   kernel32:KERNEL32.dll
 0004:000009e0       __imp__GlobalHandle@4      111189e0   kernel32:KERNEL32.dll
 0004:000009e4       __imp__InitializeCriticalSection@4 111189e4   kernel32:KERNEL32.dll
 0004:000009e8       __imp__EnterCriticalSection@4 111189e8   kernel32:KERNEL32.dll
 0004:000009ec       __imp__LeaveCriticalSection@4 111189ec   kernel32:KERNEL32.dll
 0004:000009f0       __imp__DeleteCriticalSection@4 111189f0   kernel32:KERNEL32.dll
 0004:000009f4       __imp__lstrcmpA@8          111189f4   kernel32:KERNEL32.dll
 0004:000009f8       __imp__LoadLibraryA@4      111189f8   kernel32:KERNEL32.dll
 0004:000009fc       __imp__lstrcmpiA@8         111189fc   kernel32:KERNEL32.dll
 0004:00000a00       __imp__WinExec@8           11118a00   kernel32:KERNEL32.dll
 0004:00000a04       __imp__Sleep@4             11118a04   kernel32:KERNEL32.dll
 0004:00000a08       \177KERNEL32_NULL_THUNK_DATA 11118a08   kernel32:KERNEL32.dll
 0004:00000a0c       __imp__strncmp             11118a0c   MSVCRT:MSVCRT.dll
 0004:00000a10       __imp__abort               11118a10   MSVCRT:MSVCRT.dll
 0004:00000a14       __imp__fprintf             11118a14   MSVCRT:MSVCRT.dll
 0004:00000a18       __imp__qsort               11118a18   MSVCRT:MSVCRT.dll
 0004:00000a1c       __imp__putc                11118a1c   MSVCRT:MSVCRT.dll
 0004:00000a20       __imp___snprintf           11118a20   MSVCRT:MSVCRT.dll
 0004:00000a24       __imp___vsnprintf          11118a24   MSVCRT:MSVCRT.dll
 0004:00000a28       __imp__fwrite              11118a28   MSVCRT:MSVCRT.dll
 0004:00000a2c       __imp__fputs               11118a2c   MSVCRT:MSVCRT.dll
 0004:00000a30       __imp__lseek               11118a30   MSVCRT:MSVCRT.dll
 0004:00000a30       __imp___lseek              11118a30   MSVCRT:MSVCRT.dll
 0004:00000a34       __imp__strpbrk             11118a34   MSVCRT:MSVCRT.dll
 0004:00000a38       __imp____p__pgmptr         11118a38   MSVCRT:MSVCRT.dll
 0004:00000a3c       __imp__stat                11118a3c   MSVCRT:MSVCRT.dll
 0004:00000a3c       __imp___stat               11118a3c   MSVCRT:MSVCRT.dll
 0004:00000a40       __imp___chdir              11118a40   MSVCRT:MSVCRT.dll
 0004:00000a44       __imp___findfirst          11118a44   MSVCRT:MSVCRT.dll
 0004:00000a48       __imp___findnext           11118a48   MSVCRT:MSVCRT.dll
 0004:00000a4c       __imp___findclose          11118a4c   MSVCRT:MSVCRT.dll
 0004:00000a50       __imp__fread               11118a50   MSVCRT:MSVCRT.dll
 0004:00000a54       __imp__calloc              11118a54   MSVCRT:MSVCRT.dll
 0004:00000a58       __imp__strtol              11118a58   MSVCRT:MSVCRT.dll
 0004:00000a5c       __imp__vfprintf            11118a5c   MSVCRT:MSVCRT.dll
 0004:00000a60       __imp__realloc             11118a60   MSVCRT:MSVCRT.dll
 0004:00000a64       __imp___errno              11118a64   MSVCRT:MSVCRT.dll
 0004:00000a68       __imp__vsprintf            11118a68   MSVCRT:MSVCRT.dll
 0004:00000a6c       __imp__free                11118a6c   MSVCRT:MSVCRT.dll
 0004:00000a70       __imp___open_osfhandle     11118a70   MSVCRT:MSVCRT.dll
 0004:00000a74       __imp___fdopen             11118a74   MSVCRT:MSVCRT.dll
 0004:00000a78       __imp__setlocale           11118a78   MSVCRT:MSVCRT.dll
 0004:00000a7c       __imp__signal              11118a7c   MSVCRT:MSVCRT.dll
 0004:00000a80       __imp___setjmp3            11118a80   MSVCRT:MSVCRT.dll
 0004:00000a84       __imp__fflush              11118a84   MSVCRT:MSVCRT.dll
 0004:00000a88       __imp__longjmp             11118a88   MSVCRT:MSVCRT.dll
 0004:00000a8c       __imp__clock               11118a8c   MSVCRT:MSVCRT.dll
 0004:00000a90       __imp__fgets               11118a90   MSVCRT:MSVCRT.dll
 0004:00000a94       __imp__strncat             11118a94   MSVCRT:MSVCRT.dll
 0004:00000a98       __imp__ctime               11118a98   MSVCRT:MSVCRT.dll
 0004:00000a9c       __imp__fopen               11118a9c   MSVCRT:MSVCRT.dll
 0004:00000aa0       __imp__fclose              11118aa0   MSVCRT:MSVCRT.dll
 0004:00000aa4       __imp___ftol               11118aa4   MSVCRT:MSVCRT.dll
 0004:00000aa8       __imp__pow                 11118aa8   MSVCRT:MSVCRT.dll
 0004:00000aac       __imp__sscanf              11118aac   MSVCRT:MSVCRT.dll
 0004:00000ab0       __imp__strtok              11118ab0   MSVCRT:MSVCRT.dll
 0004:00000ab4       __imp__toupper             11118ab4   MSVCRT:MSVCRT.dll
 0004:00000ab8       __imp__open                11118ab8   MSVCRT:MSVCRT.dll
 0004:00000ab8       __imp___open               11118ab8   MSVCRT:MSVCRT.dll
 0004:00000abc       __imp__fputc               11118abc   MSVCRT:MSVCRT.dll
 0004:00000ac0       __imp__malloc              11118ac0   MSVCRT:MSVCRT.dll
 0004:00000ac4       __imp__tolower             11118ac4   MSVCRT:MSVCRT.dll
 0004:00000ac8       __imp____p__iob            11118ac8   MSVCRT:MSVCRT.dll
 0004:00000acc       __imp__abs                 11118acc   MSVCRT:MSVCRT.dll
 0004:00000ad0       __imp__strcat              11118ad0   MSVCRT:MSVCRT.dll
 0004:00000ad4       __imp__exit                11118ad4   MSVCRT:MSVCRT.dll
 0004:00000ad8       __imp__strchr              11118ad8   MSVCRT:MSVCRT.dll
 0004:00000adc       __imp__strcmp              11118adc   MSVCRT:MSVCRT.dll
 0004:00000ae0       __imp__getenv              11118ae0   MSVCRT:MSVCRT.dll
 0004:00000ae4       __imp__memcmp              11118ae4   MSVCRT:MSVCRT.dll
 0004:00000ae8       __imp__putchar             11118ae8   MSVCRT:MSVCRT.dll
 0004:00000aec       __imp__strlen              11118aec   MSVCRT:MSVCRT.dll
 0004:00000af0       __imp__puts                11118af0   MSVCRT:MSVCRT.dll
 0004:00000af4       __imp____p___mb_cur_max    11118af4   MSVCRT:MSVCRT.dll
 0004:00000af8       __imp__printf              11118af8   MSVCRT:MSVCRT.dll
 0004:00000afc       __imp____p__pctype         11118afc   MSVCRT:MSVCRT.dll
 0004:00000b00       __imp__memchr              11118b00   MSVCRT:MSVCRT.dll
 0004:00000b04       __imp___isctype            11118b04   MSVCRT:MSVCRT.dll
 0004:00000b08       __imp__atoi                11118b08   MSVCRT:MSVCRT.dll
 0004:00000b0c       __imp__strncpy             11118b0c   MSVCRT:MSVCRT.dll
 0004:00000b10       __imp__memcpy              11118b10   MSVCRT:MSVCRT.dll
 0004:00000b14       __imp__time                11118b14   MSVCRT:MSVCRT.dll
 0004:00000b18       __imp___adjust_fdiv        11118b18   MSVCRT:MSVCRT.dll
 0004:00000b1c       __imp___splitpath          11118b1c   MSVCRT:MSVCRT.dll
 0004:00000b20       __imp___initterm           11118b20   MSVCRT:MSVCRT.dll
 0004:00000b24       __imp__close               11118b24   MSVCRT:MSVCRT.dll
 0004:00000b24       __imp___close              11118b24   MSVCRT:MSVCRT.dll
 0004:00000b28       __imp__creat               11118b28   MSVCRT:MSVCRT.dll
 0004:00000b28       __imp___creat              11118b28   MSVCRT:MSVCRT.dll
 0004:00000b2c       __imp__rename              11118b2c   MSVCRT:MSVCRT.dll
 0004:00000b30       __imp___fileno             11118b30   MSVCRT:MSVCRT.dll
 0004:00000b30       __imp__fileno              11118b30   MSVCRT:MSVCRT.dll
 0004:00000b34       __imp__fgetc               11118b34   MSVCRT:MSVCRT.dll
 0004:00000b38       __imp__atof                11118b38   MSVCRT:MSVCRT.dll
 0004:00000b3c       __imp__sopen               11118b3c   MSVCRT:MSVCRT.dll
 0004:00000b3c       __imp___sopen              11118b3c   MSVCRT:MSVCRT.dll
 0004:00000b40       __imp__getchar             11118b40   MSVCRT:MSVCRT.dll
 0004:00000b44       __imp__localtime           11118b44   MSVCRT:MSVCRT.dll
 0004:00000b48       __imp__getcwd              11118b48   MSVCRT:MSVCRT.dll
 0004:00000b48       __imp___getcwd             11118b48   MSVCRT:MSVCRT.dll
 0004:00000b4c       __imp___unlink             11118b4c   MSVCRT:MSVCRT.dll
 0004:00000b4c       __imp__unlink              11118b4c   MSVCRT:MSVCRT.dll
 0004:00000b50       __imp___access             11118b50   MSVCRT:MSVCRT.dll
 0004:00000b50       __imp__access              11118b50   MSVCRT:MSVCRT.dll
 0004:00000b54       __imp__strcpy              11118b54   MSVCRT:MSVCRT.dll
 0004:00000b58       __imp__read                11118b58   MSVCRT:MSVCRT.dll
 0004:00000b58       __imp___read               11118b58   MSVCRT:MSVCRT.dll
 0004:00000b5c       __imp__memset              11118b5c   MSVCRT:MSVCRT.dll
 0004:00000b60       __imp___getpid             11118b60   MSVCRT:MSVCRT.dll
 0004:00000b60       __imp__getpid              11118b60   MSVCRT:MSVCRT.dll
 0004:00000b64       __imp__write               11118b64   MSVCRT:MSVCRT.dll
 0004:00000b64       __imp___write              11118b64   MSVCRT:MSVCRT.dll
 0004:00000b68       __imp__sprintf             11118b68   MSVCRT:MSVCRT.dll
 0004:00000b6c       \177MSVCRT_NULL_THUNK_DATA 11118b6c   MSVCRT:MSVCRT.dll
 0004:00000b70       __imp__CheckMenuItem@12    11118b70   user32:USER32.dll
 0004:00000b74       __imp__HiliteMenuItem@16   11118b74   user32:USER32.dll
 0004:00000b78       __imp__GetMenuItemCount@4  11118b78   user32:USER32.dll
 0004:00000b7c       __imp__SetMenu@8           11118b7c   user32:USER32.dll
 0004:00000b80       __imp__DdeFreeStringHandle@8 11118b80   user32:USER32.dll
 0004:00000b84       __imp__DdeConnect@16       11118b84   user32:USER32.dll
 0004:00000b88       __imp__DdeConnectList@20   11118b88   user32:USER32.dll
 0004:00000b8c       __imp__TrackPopupMenu@28   11118b8c   user32:USER32.dll
 0004:00000b90       __imp__DdeClientTransaction@32 11118b90   user32:USER32.dll
 0004:00000b94       __imp__wsprintfA           11118b94   user32:USER32.dll
 0004:00000b98       __imp__DdeCreateStringHandleA@12 11118b98   user32:USER32.dll
 0004:00000b9c       __imp__DdeCreateDataHandle@28 11118b9c   user32:USER32.dll
 0004:00000ba0       __imp__DdeNameService@16   11118ba0   user32:USER32.dll
 0004:00000ba4       __imp__DdePostAdvise@12    11118ba4   user32:USER32.dll
 0004:00000ba8       __imp__DdeEnableCallback@12 11118ba8   user32:USER32.dll
 0004:00000bac       __imp__DdeDisconnect@4     11118bac   user32:USER32.dll
 0004:00000bb0       __imp__DdeAbandonTransaction@12 11118bb0   user32:USER32.dll
 0004:00000bb4       __imp__DdeCmpStringHandles@8 11118bb4   user32:USER32.dll
 0004:00000bb8       __imp__DdeUninitialize@4   11118bb8   user32:USER32.dll
 0004:00000bbc       __imp__DdeQueryNextServer@8 11118bbc   user32:USER32.dll
 0004:00000bc0       __imp__ChildWindowFromPoint@12 11118bc0   user32:USER32.dll
 0004:00000bc4       __imp__DdeQueryConvInfo@12 11118bc4   user32:USER32.dll
 0004:00000bc8       __imp__SetWindowLongA@12   11118bc8   user32:USER32.dll
 0004:00000bcc       __imp__CreateWindowExA@48  11118bcc   user32:USER32.dll
 0004:00000bd0       __imp__DeleteMenu@12       11118bd0   user32:USER32.dll
 0004:00000bd4       __imp__GetSubMenu@8        11118bd4   user32:USER32.dll
 0004:00000bd8       __imp__GetSystemMetrics@4  11118bd8   user32:USER32.dll
 0004:00000bdc       __imp__CreateMenu@0        11118bdc   user32:USER32.dll
 0004:00000be0       __imp__IsIconic@4          11118be0   user32:USER32.dll
 0004:00000be4       __imp__OffsetRect@12       11118be4   user32:USER32.dll
 0004:00000be8       __imp__LookupIconIdFromDirectory@8 11118be8   user32:USER32.dll
 0004:00000bec       __imp__DestroyWindow@4     11118bec   user32:USER32.dll
 0004:00000bf0       __imp__DispatchMessageA@4  11118bf0   user32:USER32.dll
 0004:00000bf4       __imp__TranslateMessage@4  11118bf4   user32:USER32.dll
 0004:00000bf8       __imp__PeekMessageA@20     11118bf8   user32:USER32.dll
 0004:00000bfc       __imp__SetTimer@16         11118bfc   user32:USER32.dll
 0004:00000c00       __imp__ReleaseDC@8         11118c00   user32:USER32.dll
 0004:00000c04       __imp__GetDC@4             11118c04   user32:USER32.dll
 0004:00000c08       __imp__FrameRect@12        11118c08   user32:USER32.dll
 0004:00000c0c       __imp__GetSysColor@4       11118c0c   user32:USER32.dll
 0004:00000c10       __imp__PtInRect@12         11118c10   user32:USER32.dll
 0004:00000c14       __imp__MoveWindow@24       11118c14   user32:USER32.dll
 0004:00000c18       __imp__SetForegroundWindow@4 11118c18   user32:USER32.dll
 0004:00000c1c       __imp__GetUpdateRect@12    11118c1c   user32:USER32.dll
 0004:00000c20       __imp__SetScrollRange@20   11118c20   user32:USER32.dll
 0004:00000c24       __imp__SetScrollPos@16     11118c24   user32:USER32.dll
 0004:00000c28       __imp__SetActiveWindow@4   11118c28   user32:USER32.dll
 0004:00000c2c       __imp__ShowWindow@8        11118c2c   user32:USER32.dll
 0004:00000c30       __imp__GetWindowLongA@8    11118c30   user32:USER32.dll
 0004:00000c34       __imp__GetActiveWindow@0   11118c34   user32:USER32.dll
 0004:00000c38       __imp__GetFocus@0          11118c38   user32:USER32.dll
 0004:00000c3c       __imp__GrayStringA@36      11118c3c   user32:USER32.dll
 0004:00000c40       __imp__LoadAcceleratorsA@8 11118c40   user32:USER32.dll
 0004:00000c44       __imp__FindWindowA@8       11118c44   user32:USER32.dll
 0004:00000c48       __imp__RegisterClassA@4    11118c48   user32:USER32.dll
 0004:00000c4c       __imp__LoadIconA@8         11118c4c   user32:USER32.dll
 0004:00000c50       __imp__LoadCursorA@8       11118c50   user32:USER32.dll
 0004:00000c54       __imp__UpdateWindow@4      11118c54   user32:USER32.dll
 0004:00000c58       __imp__AppendMenuA@16      11118c58   user32:USER32.dll
 0004:00000c5c       __imp__GetSystemMenu@8     11118c5c   user32:USER32.dll
 0004:00000c60       __imp__ReleaseCapture@0    11118c60   user32:USER32.dll
 0004:00000c64       __imp__SetCapture@4        11118c64   user32:USER32.dll
 0004:00000c68       __imp__GetClientRect@8     11118c68   user32:USER32.dll
 0004:00000c6c       __imp__DefWindowProcA@16   11118c6c   user32:USER32.dll
 0004:00000c70       __imp__InvalidateRect@12   11118c70   user32:USER32.dll
 0004:00000c74       __imp__SetWindowsHookExA@16 11118c74   user32:USER32.dll
 0004:00000c78       __imp__GetKeyState@4       11118c78   user32:USER32.dll
 0004:00000c7c       __imp__PostQuitMessage@4   11118c7c   user32:USER32.dll
 0004:00000c80       __imp__UnhookWindowsHookEx@4 11118c80   user32:USER32.dll
 0004:00000c84       __imp__BeginPaint@8        11118c84   user32:USER32.dll
 0004:00000c88       __imp__UnregisterClassA@8  11118c88   user32:USER32.dll
 0004:00000c8c       __imp__MessageBeep@4       11118c8c   user32:USER32.dll
 0004:00000c90       __imp__GetKeyboardState@4  11118c90   user32:USER32.dll
 0004:00000c94       __imp__IntersectRect@12    11118c94   user32:USER32.dll
 0004:00000c98       __imp__SetRect@20          11118c98   user32:USER32.dll
 0004:00000c9c       __imp__CallWindowProcA@20  11118c9c   user32:USER32.dll
 0004:00000ca0       __imp__ClientToScreen@8    11118ca0   user32:USER32.dll
 0004:00000ca4       __imp__CreatePopupMenu@0   11118ca4   user32:USER32.dll
 0004:00000ca8       __imp__DrawMenuBar@4       11118ca8   user32:USER32.dll
 0004:00000cac       __imp__GetMenuState@12     11118cac   user32:USER32.dll
 0004:00000cb0       __imp__WinHelpA@16         11118cb0   user32:USER32.dll
 0004:00000cb4       __imp__ScrollDC@28         11118cb4   user32:USER32.dll
 0004:00000cb8       __imp__InvalidateRgn@12    11118cb8   user32:USER32.dll
 0004:00000cbc       __imp__SetWindowTextA@8    11118cbc   user32:USER32.dll
 0004:00000cc0       __imp__ValidateRect@8      11118cc0   user32:USER32.dll
 0004:00000cc4       __imp__DestroyMenu@4       11118cc4   user32:USER32.dll
 0004:00000cc8       __imp__InsertMenuA@20      11118cc8   user32:USER32.dll
 0004:00000ccc       __imp__SetWindowPos@28     11118ccc   user32:USER32.dll
 0004:00000cd0       __imp__RedrawWindow@16     11118cd0   user32:USER32.dll
 0004:00000cd4       __imp__GetMenu@4           11118cd4   user32:USER32.dll
 0004:00000cd8       __imp__EnableMenuItem@12   11118cd8   user32:USER32.dll
 0004:00000cdc       __imp__ScreenToClient@8    11118cdc   user32:USER32.dll
 0004:00000ce0       __imp__KillTimer@8         11118ce0   user32:USER32.dll
 0004:00000ce4       __imp__BringWindowToTop@4  11118ce4   user32:USER32.dll
 0004:00000ce8       __imp__PostMessageA@16     11118ce8   user32:USER32.dll
 0004:00000cec       __imp__CallNextHookEx@16   11118cec   user32:USER32.dll
 0004:00000cf0       __imp__EmptyClipboard@0    11118cf0   user32:USER32.dll
 0004:00000cf4       __imp__SetClipboardData@8  11118cf4   user32:USER32.dll
 0004:00000cf8       __imp__OpenClipboard@4     11118cf8   user32:USER32.dll
 0004:00000cfc       __imp__GetClipboardData@4  11118cfc   user32:USER32.dll
 0004:00000d00       __imp__CloseClipboard@0    11118d00   user32:USER32.dll
 0004:00000d04       __imp__GetWindowRect@8     11118d04   user32:USER32.dll
 0004:00000d08       __imp__ScrollWindow@20     11118d08   user32:USER32.dll
 0004:00000d0c       __imp__SendMessageA@16     11118d0c   user32:USER32.dll
 0004:00000d10       __imp__TranslateAcceleratorA@12 11118d10   user32:USER32.dll
 0004:00000d14       __imp__CharLowerA@4        11118d14   user32:USER32.dll
 0004:00000d18       __imp__IsRectEmpty@4       11118d18   user32:USER32.dll
 0004:00000d1c       __imp__EndPaint@8          11118d1c   user32:USER32.dll
 0004:00000d20       __imp__EqualRect@8         11118d20   user32:USER32.dll
 0004:00000d24       __imp__InvertRect@8        11118d24   user32:USER32.dll
 0004:00000d28       __imp__DestroyIcon@4       11118d28   user32:USER32.dll
 0004:00000d2c       __imp__DrawIcon@16         11118d2c   user32:USER32.dll
 0004:00000d30       __imp__GetForegroundWindow@0 11118d30   user32:USER32.dll
 0004:00000d34       __imp__GetScrollPos@8      11118d34   user32:USER32.dll
 0004:00000d38       __imp__GetScrollRange@16   11118d38   user32:USER32.dll
 0004:00000d3c       __imp__EnableWindow@8      11118d3c   user32:USER32.dll
 0004:00000d40       __imp__AdjustWindowRect@12 11118d40   user32:USER32.dll
 0004:00000d44       __imp__CreateIcon@28       11118d44   user32:USER32.dll
 0004:00000d48       __imp__DdeGetData@16       11118d48   user32:USER32.dll
 0004:00000d4c       __imp__GetMessageA@16      11118d4c   user32:USER32.dll
 0004:00000d50       __imp__SetCursor@4         11118d50   user32:USER32.dll
 0004:00000d54       __imp__LoadStringA@16      11118d54   user32:USER32.dll
 0004:00000d58       __imp__DdeInitializeA@16   11118d58   user32:USER32.dll
 0004:00000d5c       __imp__DdeFreeDataHandle@4 11118d5c   user32:USER32.dll
 0004:00000d60       __imp__DdeQueryStringA@20  11118d60   user32:USER32.dll
 0004:00000d64       __imp__DdeGetLastError@4   11118d64   user32:USER32.dll
 0004:00000d68       __imp__MessageBoxA@16      11118d68   user32:USER32.dll
 0004:00000d6c       __imp__SetFocus@4          11118d6c   user32:USER32.dll
 0004:00000d70       __imp__FillRect@12         11118d70   user32:USER32.dll
 0004:00000d74       __imp__UnionRect@12        11118d74   user32:USER32.dll
 0004:00000d78       __imp__GetParent@4         11118d78   user32:USER32.dll
 0004:00000d7c       \177USER32_NULL_THUNK_DATA 11118d7c   user32:USER32.dll
 0004:00000d80       __imp__GetFileVersionInfoA@16 11118d80   version:VERSION.dll
 0004:00000d84       __imp__VerQueryValueA@16   11118d84   version:VERSION.dll
 0004:00000d88       __imp__GetFileVersionInfoSizeA@8 11118d88   version:VERSION.dll
 0004:00000d8c       \177VERSION_NULL_THUNK_DATA 11118d8c   version:VERSION.dll
 0004:00000d90       __imp__PlaySoundA@12       11118d90   winmm:WINMM.dll
 0004:00000d94       \177WINMM_NULL_THUNK_DATA  11118d94   winmm:WINMM.dll
 0004:00000d98       __imp__SetJobA@20          11118d98   winspool:WINSPOOL.DRV
 0004:00000d9c       __imp__OpenPrinterA@12     11118d9c   winspool:WINSPOOL.DRV
 0004:00000da0       __imp__GetPrinterA@20      11118da0   winspool:WINSPOOL.DRV
 0004:00000da4       __imp__DocumentPropertiesA@24 11118da4   winspool:WINSPOOL.DRV
 0004:00000da8       __imp__GetJobA@24          11118da8   winspool:WINSPOOL.DRV
 0004:00000dac       __imp__EnumJobsA@32        11118dac   winspool:WINSPOOL.DRV
 0004:00000db0       __imp__ClosePrinter@4      11118db0   winspool:WINSPOOL.DRV
 0004:00000db4       \177WINSPOOL_NULL_THUNK_DATA 11118db4   winspool:WINSPOOL.DRV
 0004:00000db8       __imp__gethostbyname@4     11118db8   wsock32:WSOCK32.dll
 0004:00000dbc       __imp__WSACleanup@0        11118dbc   wsock32:WSOCK32.dll
 0004:00000dc0       __imp__closesocket@4       11118dc0   wsock32:WSOCK32.dll
 0004:00000dc4       __imp__listen@8            11118dc4   wsock32:WSOCK32.dll
 0004:00000dc8       __imp__ntohs@4             11118dc8   wsock32:WSOCK32.dll
 0004:00000dcc       __imp__getsockname@12      11118dcc   wsock32:WSOCK32.dll
 0004:00000dd0       __imp__bind@12             11118dd0   wsock32:WSOCK32.dll
 0004:00000dd4       __imp__socket@12           11118dd4   wsock32:WSOCK32.dll
 0004:00000dd8       __imp__connect@12          11118dd8   wsock32:WSOCK32.dll
 0004:00000ddc       __imp__WSACancelAsyncRequest@4 11118ddc   wsock32:WSOCK32.dll
 0004:00000de0       __imp__WSAAsyncGetHostByName@20 11118de0   wsock32:WSOCK32.dll
 0004:00000de4       __imp__ioctlsocket@12      11118de4   wsock32:WSOCK32.dll
 0004:00000de8       __imp__WSAAsyncGetServByName@24 11118de8   wsock32:WSOCK32.dll
 0004:00000dec       __imp__setsockopt@20       11118dec   wsock32:WSOCK32.dll
 0004:00000df0       __imp__htonl@4             11118df0   wsock32:WSOCK32.dll
 0004:00000df4       __imp__htons@4             11118df4   wsock32:WSOCK32.dll
 0004:00000df8       __imp__WSAAsyncSelect@16   11118df8   wsock32:WSOCK32.dll
 0004:00000dfc       __imp__sendto@24           11118dfc   wsock32:WSOCK32.dll
 0004:00000e00       __imp__recvfrom@24         11118e00   wsock32:WSOCK32.dll
 0004:00000e04       __imp__getsockopt@20       11118e04   wsock32:WSOCK32.dll
 0004:00000e08       __imp__accept@12           11118e08   wsock32:WSOCK32.dll
 0004:00000e0c       __imp__send@16             11118e0c   wsock32:WSOCK32.dll
 0004:00000e10       __imp__recv@16             11118e10   wsock32:WSOCK32.dll
 0004:00000e14       __imp__ntohl@4             11118e14   wsock32:WSOCK32.dll
 0004:00000e18       __imp__select@20           11118e18   wsock32:WSOCK32.dll
 0004:00000e1c       __imp__gethostname@8       11118e1c   wsock32:WSOCK32.dll
 0004:00000e20       __imp__WSAStartup@8        11118e20   wsock32:WSOCK32.dll
 0004:00000e24       __imp__inet_ntoa@4         11118e24   wsock32:WSOCK32.dll
 0004:00000e28       __imp__getservbyname@8     11118e28   wsock32:WSOCK32.dll
 0004:00000e2c       __imp__WSAGetLastError@0   11118e2c   wsock32:WSOCK32.dll
 0004:00000e30       \177WSOCK32_NULL_THUNK_DATA 11118e30   wsock32:WSOCK32.dll
 0004:00000e34       __imp__csget_dest          11118e34   cslib:cslib.dll
 0004:00000e38       __imp__csget_resiltype     11118e38   cslib:cslib.dll
 0004:00000e3c       __imp__csget_linkstat      11118e3c   cslib:cslib.dll
 0004:00000e40       __imp__csget_linktype      11118e40   cslib:cslib.dll
 0004:00000e44       __imp__csget_last_host     11118e44   cslib:cslib.dll
 0004:00000e48       __imp__csget_last_etoe     11118e48   cslib:cslib.dll
 0004:00000e4c       __imp__csget_src           11118e4c   cslib:cslib.dll
 0004:00000e50       __imp__csget_msgsrc        11118e50   cslib:cslib.dll
 0004:00000e54       __imp__csget_rsctype       11118e54   cslib:cslib.dll
 0004:00000e58       __imp__cs_sendapi          11118e58   cslib:cslib.dll
 0004:00000e5c       __imp__csget_auxport       11118e5c   cslib:cslib.dll
 0004:00000e60       __imp__cs_deallocate       11118e60   cslib:cslib.dll
 0004:00000e64       __imp__cs_com              11118e64   cslib:cslib.dll
 0004:00000e68       __imp__cs_confirm          11118e68   cslib:cslib.dll
 0004:00000e6c       __imp__csget_sesstat       11118e6c   cslib:cslib.dll
 0004:00000e70       __imp__cs_data             11118e70   cslib:cslib.dll
 0004:00000e74       __imp__cs_cfgres           11118e74   cslib:cslib.dll
 0004:00000e78       __imp__cs_allocate         11118e78   cslib:cslib.dll
 0004:00000e7c       __imp__cs_set_options      11118e7c   cslib:cslib.dll
 0004:00000e80       __imp__cs_net_info         11118e80   cslib:cslib.dll
 0004:00000e84       __imp__cs_config           11118e84   cslib:cslib.dll
 0004:00000e88       __imp__cs_init             11118e88   cslib:cslib.dll
 0004:00000e8c       __imp__cs_log              11118e8c   cslib:cslib.dll
 0004:00000e90       \177cslib_NULL_THUNK_DATA  11118e90   cslib:cslib.dll

 entry point at        0001:00099a00

 Static symbols

 0001:000574ae       _mypcl2str                 110584ae f winmenu.obj
 0001:0005788c       _PDM_append                1105888c f winmenu.obj
 0001:00057923       _PDM_remove                11058923 f winmenu.obj
 0001:00057974       _PDM_find_by_ano_ino       11058974 f winmenu.obj
 0001:00057a5d       _PDM_find_by_hmenu         11058a5d f winmenu.obj
 0001:00057b6b       _PDMI_append               11058b6b f winmenu.obj
 0001:00057bea       _PDMI_next_id              11058bea f winmenu.obj
 0001:00057c46       _PDMI_remove               11058c46 f winmenu.obj
 0001:00057cb2       _PDMI_find_by_key_hmenu    11058cb2 f winmenu.obj
 0001:00057d4e       _PDMI_find_by_hpdmenu      11058d4e f winmenu.obj
 0001:00057e06       _PDMI_find_by_ano_ino      11058e06 f winmenu.obj
 0001:000580fc       _PDMI_find_by_id           110590fc f winmenu.obj
 0001:00058189       _PDMI_find_by_id_hmenu     11059189 f winmenu.obj
 0001:00053dba       _TESetFont                 11054dba f textedit.obj
 0001:00052578       _GetConsoleHwnd            11053578 f single.obj
 0001:0005003e       _scrollproc                1105103e f rtwindow.obj
 0001:0005052b       _check_scrollbars          1105152b f rtwindow.obj
 0001:00050ab3       _set_minmaxinfo            11051ab3 f rtwindow.obj
 0001:00050b6b       _get_num                   11051b6b f rtwindow.obj
 0001:00050cec       _proc_control              11051cec f rtwindow.obj
 0001:00050f6c       _msg_to_wndproc            11051f6c f rtwindow.obj
 0001:0004d84b       _select_spacing            1104e84b f rtfonts.obj
 0001:0004d8ef       _stringwidth               1104e8ef f rtfonts.obj
 0001:0004d940       _normalout                 1104e940 f rtfonts.obj
 0001:0004d9fe       _outlineout                1104e9fe f rtfonts.obj
 0001:0004db6f       _rnd_ratio                 1104eb6f f rtfonts.obj
 0001:0004a082       _appendfldlist             1104b082 f rtable.obj
 0001:0004b5db       _rangecriteria             1104c5db f rtable.obj
 0001:0004b9ef       _addlistcriteria           1104c9ef f rtable.obj
 0001:0004c2a2       _addcriteria               1104d2a2 f rtable.obj
 0001:00048996       _quit_now                  11049996 f rt.obj
 0001:00048a87       _setup_stderr              11049a87 f rt.obj
 0001:00048e77       _waitforkey                11049e77 f rt.obj
 0001:00048e9f       _rtusage                   11049e9f f rt.obj
 0001:00049600       _rt_cleanup                1104a600 f rt.obj
 0001:00045fc2       _pl_pagedown               11046fc2 f picklist.obj
 0001:000461a9       _end_plproc                110471a9 f picklist.obj
 0001:0004620d       _center_scroll             1104720d f picklist.obj
 0001:0004652f       _set_pickitems             1104752f f picklist.obj
 0001:000465be       _pickmatch                 110475be f picklist.obj
 0001:000466a7       _no_picklist_list          110476a7 f picklist.obj
 0001:00046722       _scrollbar_wanted          11047722 f picklist.obj
 0001:000467d6       _find_plfocus              110477d6 f picklist.obj
 0001:00046a3f       _match_1st                 11047a3f f picklist.obj
 0001:00046c43       _pl_unreverse              11047c43 f picklist.obj
 0001:00046c7c       _pl_drawline               11047c7c f picklist.obj
 0001:00040049       _set_arg_types             11041049 f pclsubs.obj
 0001:0004120c       _find_ind_stack            1104220c f pclsubs.obj
 0001:000412c5       _sfcopy                    110422c5 f pclsubs.obj
 0001:0004134c       _sfuncopy                  1104234c f pclsubs.obj
 0001:00041c7b       _clear_fieldlisted         11042c7b f pclsubs.obj
 0001:00041cd6       _make_edited_string        11042cd6 f pclsubs.obj
 0001:0004230a       _setup_timeofday           1104330a f pclsubs.obj
 0001:0004240f       _remove_timer              1104340f f pclsubs.obj
 0001:000424d4       _set_idle_flag             110434d4 f pclsubs.obj
 0001:0003e26e       _bad_exit                  1103f26e f pcl.obj
 0001:0003e2fe       _bogus_tran                1103f2fe f pcl.obj
 0001:0003e348       _mangle_field              1103f348 f pcl.obj
 0001:0003e464       _exec_ind_proc             1103f464 f pcl.obj
 0001:0003e5a1       _remove_a_dl               1103f5a1 f pcl.obj
 0001:0003e5ce       _rt_get_tag                1103f5ce f pcl.obj
 0001:0003eb72       _obj_typename              1103fb72 f pcl.obj
 0001:0003ebde       _obj_names                 1103fbde f pcl.obj
 0001:0003ec55       _test_remove_str           1103fc55 f pcl.obj
 0001:0003510f       _multipick                 1103610f f multirec.obj
 0001:000355b7       _buildmdhdr                110365b7 f multirec.obj
 0001:00035917       _buildmdlist               11036917 f multirec.obj
 0001:00035c0d       _buildlist                 11036c0d f multirec.obj
 0001:000363d9       _pickfield                 110373d9 f multirec.obj
 0001:00036462       _setuplist                 11037462 f multirec.obj
 0001:000364cb       _findnrec                  110374cb f multirec.obj
 0001:000325f0       _fld_value_match           110335f0 f mouse.obj
 0001:0003280d       _dopicksel                 1103380d f mouse.obj
 0001:00033d40       _user_wants_mouseclick     11034d40 f mouse.obj
 0001:00034b08       _fill_edges                11035b08 f mouse.obj
 0001:00034c37       _win_button_border         11035c37 f mouse.obj
 0001:00035045       _switch_focus              11036045 f mouse.obj
 0001:0002e62e       _tmenu                     1102f62e f menus.obj
 0001:0002e7a3       _menu_type_T               1102f7a3 f menus.obj
 0001:0002ee66       _showmenuT                 1102fe66 f menus.obj
 0001:0002f015       _loadmenuT                 11030015 f menus.obj
 0001:0002f297       _getmenuchoice             11030297 f menus.obj
 0001:0002f393       _showtps                   11030393 f menus.obj
 0001:0002f639       _update_tutorial_flds      11030639 f menus.obj
 0001:0002f74f       _makemitem                 1103074f f menus.obj
 0001:0002f7da       _checkaccess               110307da f menus.obj
 0001:0002f950       _drop_select_char          11030950 f menus.obj
 0001:0002f9b8       _menu_init                 110309b8 f menus.obj
 0001:0002fb9e       _menu_drawstuff            11030b9e f menus.obj
 0001:0002ff6e       _menu_type_P               11030f6e f menus.obj
 0001:00030698       _buildpl                   11031698 f menus.obj
 0001:00028e07       _scan_man                  11029e07 f manual.obj
 0001:0002a12c       _man_draw_page             1102b12c f manual.obj
 0001:0002ac0c       _getnextobj                1102bc0c f manual.obj
 0001:0002ac56       _man_get_field             1102bc56 f manual.obj
 0001:0002b66d       _man_open_display          1102c66d f manual.obj
 0001:0002ba49       _man_close_display         1102ca49 f manual.obj
 0001:0002ba68       _man_get_page              1102ca68 f manual.obj
 0001:0002bed7       _man_read_error            1102ced7 f manual.obj
 0001:0002beff       _man_index_lookup          1102ceff f manual.obj
 0001:0002c4cf       _man_hunt                  1102d4cf f manual.obj
 0001:0002d9a3       _drawframe                 1102e9a3 f manual.obj
 0001:0002da45       _man_dots                  1102ea45 f manual.obj
 0001:0002da9f       _man_unframe               1102ea9f f manual.obj
 0001:0002dbbd       _man_nextone               1102ebbd f manual.obj
 0001:0002dc2c       _man_upcase                1102ec2c f manual.obj
 0001:0002dcc0       _man_free_ptrs             1102ecc0 f manual.obj
 0001:0002ddce       _man_translate             1102edce f manual.obj
 0001:0002de1c       _man_help_page             1102ee1c f manual.obj
 0001:0002e537       _man_check_reset           1102f537 f manual.obj
 0001:0002748e       _dolocalprint              1102848e f localprt.obj
 0001:00027723       _buildarray                11028723 f localprt.obj
 0001:00028307       _stripchar                 11029307 f localprt.obj
 0001:0002836d       _buildline                 1102936d f localprt.obj
 0001:0002849f       _allowchars                1102949f f localprt.obj
 0001:00028519       _printarray                11029519 f localprt.obj
 0001:00028676       _notallspaces              11029676 f localprt.obj
 0001:000286cd       _punchhole                 110296cd f localprt.obj
 0001:00028769       _frametherect              11029769 f localprt.obj
 0001:000289a5       _hpixel2char               110299a5 f localprt.obj
 0001:000289e5       _vpixel2char               110299e5 f localprt.obj
 0001:00028a34       _limitvchars               11029a34 f localprt.obj
 0001:00028a7c       _limithchars               11029a7c f localprt.obj
 0001:00028ac4       _screenindex               11029ac4 f localprt.obj
 0001:00028b4c       _LPGetFontInfo             11029b4c f localprt.obj
 0001:00024919       _wsccb_append              11025919 f io.obj
 0001:00024957       _wsccb_remove              11025957 f io.obj
 0001:0002498b       _wsiocb_append             1102598b f io.obj
 0001:000249c1       _wsiocb_remove             110259c1 f io.obj
 0001:00024ad7       _wsiocb_findbyname         11025ad7 f io.obj
 0001:00025c0d       _set_time                  11026c0d f io.obj
 0001:00025e1b       _pp_itoa                   11026e1b f io.obj
 0001:00025e6c       _strmove                   11026e6c f io.obj
 0001:000263b3       _displayTEcursor           110273b3 f io.obj
 0001:000265ae       _invertcursor              110275ae f io.obj
 0001:00026ce4       _setup_date_fields         11027ce4 f io.obj
 0001:00026d7f       _init_field_with_pointer   11027d7f f io.obj
 0001:00024372       _dumpchar                  11025372 f initstmt.obj
 0001:00024398       _dumpstr                   11025398 f initstmt.obj
 0001:000243ce       _dumpone                   110253ce f initstmt.obj
 0001:000243ef       _dumpint                   110253ef f initstmt.obj
 0001:00024414       _dump_finish               11025414 f initstmt.obj
 0001:00024463       _yesno                     11025463 f initstmt.obj
 0001:000244a1       _dump_rtobj                110254a1 f initstmt.obj
 0001:00021b47       _bad_op                    11022b47 f expr.obj
 0001:0001ca49       _prtvarinit                1101da49 f execprt.obj
 0001:0001cd22       _makelogicaldev            1101dd22 f execprt.obj
 0001:0001cd9f       _do_print_itself           1101dd9f f execprt.obj
 0001:0001d29f       _vrtprt                    1101e29f f execprt.obj
 0001:0001d4c0       _create_print_context      1101e4c0 f execprt.obj
 0001:0001db45       _MyStartPage               1101eb45 f execprt.obj
 0001:0001dbcd       _GetSize                   1101ebcd f execprt.obj
 0001:0001deee       _DonePrinting              1101eeee f execprt.obj
 0001:0001e008       _WaitForRemoteJobId        1101f008 f execprt.obj
 0001:0001e0ea       _AuxOrReset                1101f0ea f execprt.obj
 0001:0001e169       _JobExists                 1101f169 f execprt.obj
 0001:0001e208       _GetJobId                  1101f208 f execprt.obj
 0001:0001e39b       _HandleMessage             1101f39b f execprt.obj
 0001:0001e43a       _StartAuxServer            1101f43a f execprt.obj
 0001:0001e4ec       _StopAuxServer             1101f4ec f execprt.obj
 0001:0001e52c       _auxlistendone             1101f52c f execprt.obj
 0001:0001e880       _doprintstmt               1101f880 f execprt.obj
 0001:0001eabd       _do_formfeed               1101fabd f execprt.obj
 0001:0001eb7a       _varg2dcpt                 1101fb7a f execprt.obj
 0001:0001ebda       _harg2dcpt                 1101fbda f execprt.obj
 0001:0001ec75       _arg2dcpt                  1101fc75 f execprt.obj
 0001:0001ecbc       _getshortarg               1101fcbc f execprt.obj
 0001:0001ed08       _getshortfld               1101fd08 f execprt.obj
 0001:0001ed7e       _programwindow             1101fd7e f execprt.obj
 0001:0001edc2       _programviewport           1101fdc2 f execprt.obj
 0001:0001f190       _PAIfind                   11020190 f execprt.obj
 0001:0001f25a       _FixNetName                1102025a f execprt.obj
 0001:0001f2bb       _printline                 110202bb f execprt.obj
 0001:0001f3c6       _myGoodRect                110203c6 f execprt.obj
 0001:0001f452       _adjustline                11020452 f execprt.obj
 0001:0001f481       _MyFillRect                11020481 f execprt.obj
 0001:0001f67f       _SetPoint                  1102067f f execprt.obj
 0001:0001f6a4       _SetPitch                  110206a4 f execprt.obj
 0001:0001f95d       _fontproc@16               1102095d f execprt.obj
 0001:0001f9cc       _pickfont                  110209cc f execprt.obj
 0001:0001fd6a       _DrawColorIcon             11020d6a f execprt.obj
 0001:0001fece       _PrintDDBits               11020ece f execprt.obj
 0001:0002012c       _SizeOrDrawBitmap          1102112c f execprt.obj
 0001:00020415       _CalcWincomcompatibleMins  11021415 f execprt.obj
 0001:000204c7       _CalcDcptsPerChar          110214c7 f execprt.obj
 0001:000205c2       _execprt_pcl2str           110215c2 f execprt.obj
 0001:000205ea       _execprt_moaLoadString     110215ea f execprt.obj
 0001:00020650       _LogFont                   11021650 f execprt.obj
 0001:0001717e       _VerifyFwdDeclaration      1101817e f execdll.obj
 0001:00017252       _CheckExtension            11018252 f execdll.obj
 0001:0001729b       _GetDLLType                1101829b f execdll.obj
 0001:000173bd       _CheckVariableParams       110183bd f execdll.obj
 0001:000174d5       _set_numchars              110184d5 f execdll.obj
 0001:00016266       _ddeml_append              11017266 f execdde.obj
 0001:0001629c       _ddeml_find                1101729c f execdde.obj
 0001:00016327       _ddeml_remove_hConv        11017327 f execdde.obj
 0001:000163c2       _ddeml_free_list           110173c2 f execdde.obj
 0001:000134bc       _row_col                   110144bc f execcrt.obj
 0001:00013564       _len_row_col               11014564 f execcrt.obj
 0001:00012746       _comm_stuff_field          11013746 f execcomm.obj
 0001:00010043       _pclerror                  11011043 f execcds.obj
 0001:000102c5       _evalstr                   110112c5 f execcds.obj
 0001:00010506       _bldlockstr                11011506 f execcds.obj
 0001:00010a76       _cds_stop_interval         11011a76 f execcds.obj
 0001:00010b06       _rtcds_update              11011b06 f execcds.obj
 0001:00010c3f       _rtcds_fetch               11011c3f f execcds.obj
 0001:00010ddc       _fillprojection            11011ddc f execcds.obj
 0001:0001100d       _filltablelist             1101200d f execcds.obj
 0001:00011244       _rtcds_verb_name           11012244 f execcds.obj
 0001:0000c26b       _ef_button                 1100d26b f errorbox.obj
 0001:0000c42c       _ef_unget                  1100d42c f errorbox.obj
 0001:0000af37       _do_demo                   1100bf37 f demo.obj
 0001:00007024       _addtofield                11008024 f datacoll.obj
 0001:0000733e       _set_ix                    1100833e f datacoll.obj
 0001:00007b5d       _nav_key_only              11008b5d f datacoll.obj
 0001:00007bd9       _do_atentry                11008bd9 f datacoll.obj
 0001:00007dd3       _check_date_field          11008dd3 f datacoll.obj
 0001:00007f0f       _stuff_zeroes              11008f0f f datacoll.obj
 0001:00007f91       _check_time_field          11008f91 f datacoll.obj
 0001:0000811d       _okay_time                 1100911d f datacoll.obj
 0001:00009816       _dc_do_tefield             1100a816 f datacoll.obj
 0001:0000a4bb       _dc_exit_TEfield           1100b4bb f datacoll.obj
 0001:0000ac78       _am_pm_time                1100bc78 f datacoll.obj
 0001:0000495d       _is_on_this_screen         1100595d f control.obj
 0001:00004a14       _parent_key                11005a14 f control.obj
 0001:00004a65       _set_new_control           11005a65 f control.obj
 0001:00001e8a       _calc_exec                 11002e8a f calc.obj
 0001:00002d33       _calc_bldamt               11003d33 f calc.obj
 0001:00002f56       _calc_showpage             11003f56 f calc.obj
 0001:00003011       _calc_display_total        11004011 f calc.obj
 0001:00003061       _calc_free_chain           11004061 f calc.obj
 0001:0000309b       _calc_full_msg             1100409b f calc.obj
 0001:000030d6       _calc_translate            110040d6 f calc.obj
 0001:00003124       _calc_print                11004124 f calc.obj
 0001:000034fb       _calc_printline            110044fb f calc.obj
 0001:00003558       _calc_stuff_amt            11004558 f calc.obj
 0001:00003799       _calc_newtotal             11004799 f calc.obj
 0001:0000390b       _calc_sync                 1100490b f calc.obj
 0001:0000395c       _calc_zero_decwork         1100495c f calc.obj
 0001:000039b1       _calc_decadd               110049b1 f calc.obj
 0001:00003a3f       _calc_decmul               11004a3f f calc.obj
 0001:00003acd       _calc_decdiv               11004acd f calc.obj
 0001:00003b5b       _calc_idiv                 11004b5b f calc.obj
 0001:00003b8d       _calc_trim1                11004b8d f calc.obj
 0001:00003c51       _calc_fix_zero             11004c51 f calc.obj
 0001:00003c94       _calc_make_dollar          11004c94 f calc.obj
 0001:00003d02       _calc_new_tape             11004d02 f calc.obj
 0001:00003d5c       _calc_load_tape            11004d5c f calc.obj
 0001:00003f28       _calc_save_tape            11004f28 f calc.obj
 0001:00004027       _calc_amtstring            11005027 f calc.obj
 0001:000040be       _calc_check_tape           110050be f calc.obj
 0001:0000434f       _calc_tape                 1100534f f calc.obj
 0001:00004464       _calc_thermo               11005464 f calc.obj
 0001:00004595       _calc_addtherm             11005595 f calc.obj
 0001:00000f21       _do_cal                    11001f21 f cal.obj
 0001:00000faa       _cal_today                 11001faa f cal.obj
 0001:0000103e       _cal_findxy                1100203e f cal.obj
 0001:0000110f       _cal_stuff_date            1100210f f cal.obj
 0001:00001174       _cal_print_year            11002174 f cal.obj
 0001:000013d1       _cal_enter_date            110023d1 f cal.obj
 0001:000016d6       _cal_translate             110026d6 f cal.obj
 0001:00001724       _cal_unreverse             11002724 f cal.obj
 0001:000a11de       _get_neighbor              110a21de f cbtree:btbinval.obj
 0001:0009c4c1       _newindex                  1109d4c1 f cbtree:creatbtr.obj
 0001:0009af17       _unlink_ub                 1109bf17 f cbtree:btvarlen.obj
 0001:0009b3d4       _read_ub                   1109c3d4 f cbtree:btvarlen.obj
 0001:0009b5b6       _remove_index              1109c5b6 f cbtree:btvarlen.obj
 0001:0009b622       _write_ub                  1109c622 f cbtree:btvarlen.obj
 0001:00061adb       _xclsvsetup                11062adb f client:clsvfunc.obj
 0001:0005fad4       _WndProc@16                11060ad4 f client:clinit.obj
 0001:00060046       _Cds_Connect               11061046 f client:clinit.obj
 0001:0005f018       _clsend                    11060018 f client:clrun.obj
 0001:0005f356       _clrecv                    11060356 f client:clrun.obj
 0001:0005d840       _rm_connect_tables         1105e840 f client:clmultis.obj
 0001:0005e042       _add_clcontext             1105f042 f client:clmultis.obj
 0001:000588af       _get_event_source          110598af f client:clstubs.obj
 0001:00058ddb       _dprnt                     11059ddb f client:clstubs.obj
 0001:000596a5       _cds_scan                  1105a6a5 f client:clstubs.obj
 0001:000599f6       _lock_unlock               1105a9f6 f client:clstubs.obj
 0001:0005a6dc       _copyRemoteTableDef        1105b6dc f client:clstubs.obj
 0001:0005b150       _translate_field_names     1105c150 f client:clstubs.obj
 0001:0005b4ce       _deref_fld                 1105c4ce f client:clstubs.obj
 0001:0005c3c2       _verify_luw_flag           1105d3c2 f client:clstubs.obj
 0001:0005c638       _verify_begin_work         1105d638 f client:clstubs.obj
 0001:0005c68c       _doclrun                   1105d68c f client:clstubs.obj
 0001:0005c6b8       _doclnwrun                 1105d6b8 f client:clstubs.obj
 0001:0005c6e4       _verify_context            1105d6e4 f client:clstubs.obj
 0001:00064ff7       _cmxrecv                   11065ff7 f cm:cmrecv.obj
 0001:000650da       _read_io_done              110660da f cm:cmrecv.obj
 0001:000647d2       _cmxsend                   110657d2 f cm:cmsend.obj
 0001:0006210d       _cm_print_value            1106310d f cm:cmprint.obj
 0001:000a3e64       _comm_hdr_func             110a4e64 f comm:cm_hdr.obj
 0001:0006bf0c       _read_trans_table          1106cf0c f comm:cm_xlt.obj
 0001:0006bf5e       _load_trans                1106cf5e f comm:cm_xlt.obj
 0001:0006afb1       _convert_2_bin             1106bfb1 f comm:c_bin.obj
 0001:0006b136       _check_end                 1106c136 f comm:c_bin.obj
 0001:0006b17a       _divide_by_2               1106c17a f comm:c_bin.obj
 0001:0006b22e       _set_bit_field             1106c22e f comm:c_bin.obj
 0001:0006b283       _twos_complement           1106c283 f comm:c_bin.obj
 0001:0006b414       _convert_2_ascii           1106c414 f comm:c_bin.obj
 0001:0006b5c6       _multiply_by_2             1106c5c6 f comm:c_bin.obj
 0001:0006b623       _test_bit_field            1106c623 f comm:c_bin.obj
 0001:0006b688       _add_one                   1106c688 f comm:c_bin.obj
 0001:0006b6ec       _con                       1106c6ec f comm:c_bin.obj
 0001:0006a0ac       _lu_callback               1106b0ac f comm:cm_lua.obj
 0001:00068fac       _env_callback              11069fac f comm:cm_ctc.obj
 0001:000692cb       _ctcrt_call_done           1106a2cb f comm:cm_ctc.obj
 0001:00069338       _ctcrt_set_wait            1106a338 f comm:cm_ctc.obj
 0001:000693b6       _ctcrt_wait_cmpl           1106a3b6 f comm:cm_ctc.obj
 0001:0006957c       _check_rcb                 1106a57c f comm:cm_ctc.obj
 0001:00066dbf       _comm_selrcb               11067dbf f comm:cm_ev.obj
 0001:000670f5       _comm_save_env             110680f5 f comm:cm_ev.obj
 0001:0006718b       _comm_restore_env          1106818b f comm:cm_ev.obj
 0001:0006640f       _comm_cfg_channel          1106740f f comm:cm_pplus.obj
 0001:000664d8       _set_pcl_variables         110674d8 f comm:cm_pplus.obj
 0001:00066634       _comm_get_list_elem        11067634 f comm:cm_pplus.obj
 0001:00073dd8       _nt_open                   11074dd8 f dataman:ddfminit.obj
 0001:000713ad       _ddgetlst                  110723ad f dataman:ddgetlst.obj
 0001:00070459       _local_free_group          11071459 f dataman:ddlocals.obj
 0001:00070b87       _local_make_field          11071b87 f dataman:ddlocals.obj
 0001:00070fbe       _ddlocal_arraysize         11071fbe f dataman:ddlocals.obj
 0001:0006c98e       _ddgetobj                  1106d98e f dataman:ddread.obj
 0001:0006e5f2       _ddinobj                   1106f5f2 f dataman:ddread.obj
 0001:00078063       _alpha                     11079063 f ddmaint:ddmaint.obj
 0001:000780bd       _digit                     110790bd f ddmaint:ddmaint.obj
 0001:000780f3       _fldobjcmp                 110790f3 f ddmaint:ddmaint.obj
 0001:00074c59       _dictabort                 11075c59 f ddmaint:ddsignal.obj
 0001:0007987f       _lodiv                     1107a87f f decmath:DECDIV.OBJ
 0001:00078b9a       _loadd                     11079b9a f decmath:DECADD.OBJ
 0001:00078df6       _losub                     11079df6 f decmath:DECADD.OBJ
 0001:000816cd       _GetDDBits                 110826cd f dsplist:extico.obj
 0001:0007f6b0       _CreateBIPalette2          110806b0 f dsplist:colorpic.obj
 0001:000811e3       _set_minmaxinfo_rtwindow   110821e3 f dsplist:colorpic.obj
 0001:0007ae34       _sl_closebox               1107be34 f dsplist:scrlist.obj
 0001:0007afce       _invisible_object          1107bfce f dsplist:scrlist.obj
 0001:00082c8f       _has_regchar               11083c8f f libnb:nball.obj
 0001:00082d85       _msg_exchange              11083d85 f libnb:nball.obj
 0001:00081ac5       _initcfg                   11082ac5 f libnb:cfglib.obj
 0001:00081b0f       _getnet_boss               11082b0f f libnb:cfglib.obj
 0001:00082025       _rmnet_boss                11083025 f libnb:cfglib.obj
 0001:000820dc       _cmn_netboss               110830dc f libnb:cfglib.obj
 0001:0008240c       _process_options           1108340c f libnb:cfglib.obj
 0001:0008264f       _f_option                  1108364f f libnb:cfglib.obj
 0001:00083581       _gl_addfree                11084581 f listmgr:listmgr.obj
 0001:00083f82       _OpenSocket                11084f82 f mcn:mcn.obj
 0001:00084ce5       _GotHostByName             11085ce5 f mcn:mcn.obj
 0001:00084e21       _RemoveAsyncConnect        11085e21 f mcn:mcn.obj
 0001:00084ef9       _GotServByName             11085ef9 f mcn:mcn.obj
 0001:00085041       _AsyncConnect              11086041 f mcn:mcn.obj
 0001:000851ec       _LocateServer              110861ec f mcn:mcn.obj
 0001:0008538b       _SendLocate                1108638b f mcn:mcn.obj
 0001:000855bd       _RecvLocate                110865bd f mcn:mcn.obj
 0001:000858d5       _TimerProc@16              110868d5 f mcn:mcn.obj
 0001:00086c1f       _HandleSockets             11087c1f f mcn:mcn.obj
 0001:000873e8       _HandleGetXByY             110883e8 f mcn:mcn.obj
 0001:000874e1       _MySend                    110884e1 f mcn:mcn.obj
 0001:0008787e       _MyRecv                    1108887e f mcn:mcn.obj
 0001:00087b7b       _GetAddress                11088b7b f mcn:mcn.obj
 0001:00087c64       _FindAddress               11088c64 f mcn:mcn.obj
 0001:00088327       _ExtractServerLocation     11089327 f mcn:mcn.obj
 0001:0008856b       _PrintSocketError          1108956b f mcn:mcn.obj
 0001:00088629       _CallBack                  11089629 f mcn:mcn.obj
 0001:0008867f       _GetNextReqId              1108967f f mcn:mcn.obj
 0001:000886b2       _CancelRequests            110896b2 f mcn:mcn.obj
 0001:0008873c       _FindCcb                   1108973c f mcn:mcn.obj
 0001:00088819       _AddCcb                    11089819 f mcn:mcn.obj
 0001:000888fa       _RemoveCcb                 110898fa f mcn:mcn.obj
 0001:0008895c       _RemoveCcbp                1108995c f mcn:mcn.obj
 0001:00088afc       _heartbeat_thread          11089afc f mcn:mcn.obj
 0001:00088c22       _AddRcb                    11089c22 f mcn:mcn.obj
 0001:00088c9e       _RemoveRcb                 11089c9e f mcn:mcn.obj
 0001:00088cd8       _FindRcbOp                 11089cd8 f mcn:mcn.obj
 0001:00088d78       _FindNextRcbOp             11089d78 f mcn:mcn.obj
 0001:00088e0f       _FindRcbOldest             11089e0f f mcn:mcn.obj
 0001:00088e66       _MCNPrintRCBs              11089e66 f mcn:mcn.obj
 0001:00088f1c       _MCNLog                    11089f1c f mcn:mcn.obj
 0001:000a4d13       _dumpline                  110a5d13 f misc:hexdump.obj
 0001:000a4f16       _print_byte                110a5f16 f misc:hexdump.obj
 0001:000a4f5f       _hex_nybble                110a5f5f f misc:hexdump.obj
 0001:000a4f9f       _show_offset               110a5f9f f misc:hexdump.obj
 0001:000966e1       _myfputc                   110976e1 f misc:hexdmp.obj
 0001:00096709       _dumpline                  11097709 f misc:hexdmp.obj
 0001:00096910       _myfputs                   11097910 f misc:hexdmp.obj
 0001:0009693a       _print_byte                1109793a f misc:hexdmp.obj
 0001:00096981       _hex_nybble                11097981 f misc:hexdmp.obj
 0001:000969c1       _show_offset               110979c1 f misc:hexdmp.obj
 0001:000950f8       _permute                   110960f8 f misc:crypt.obj
 0001:00095664       _init_des                  11096664 f misc:crypt.obj
 0001:00095c46       _init_perm                 11096c46 f misc:crypt.obj
 0001:00094bed       _ERR                       11095bed f misc:getopt.obj
 0001:000943c8       _chset                     110953c8 f misc:regcomp.obj
 0001:000933d9       _pmatch                    110943d9 f misc:regexec.obj
 0001:0009399d       _re_fail                   1109499d f misc:regexec.obj
 0001:000931c4       _fontmatch                 110941c4 f misc:wmfontls.obj
 0001:0009285a       _check_working_dir         1109385a f misc:filename.obj
 0001:000929ee       _get_keyvalue              110939ee f misc:filename.obj
 0001:000920df       _crash_abort               110930df f misc:er.obj
 0001:00092170       _erprint                   11093170 f misc:er.obj
 0001:00091189       _mr                        11092189 f misc:msgrtn.obj
 0001:00091446       _getmrs                    11092446 f misc:msgrtn.obj
 0001:00091575       _setmrs                    11092575 f misc:msgrtn.obj
 0001:0008c644       _gt_int_max                1108d644 f misc:convers.obj
 0001:0008b755       _local_set_watchcursor     1108c755 f misc:rtrawkey.obj
 0001:0008aa53       _shortdayname              1108ba53 f misc:dates.obj
 0001:000892c3       _er_itoa                   1108a2c3 f misc:swerrmsg.obj
 0001:00089333       _get_message_text          1108a333 f misc:swerrmsg.obj
 0001:000db3ad       _tblenter                  110dc3ad f pcl:lextab.obj
 0001:000d8d26       _de_len_row_col            110d9d26 f pcl:decrt.obj
 0001:000d8d90       _de_row_col                110d9d90 f pcl:decrt.obj
 0001:000d8e2d       _de_trim                   110d9e2d f pcl:decrt.obj
 0001:000d871d       _out_cds_op                110d971d f pcl:decds.obj
 0001:000d4b49       _cds_get_string            110d5b49 f pcl:cdsstmt.obj
 0001:000d4c00       _get_number                110d5c00 f pcl:cdsstmt.obj
 0001:000d4dfa       _is_reserved               110d5dfa f pcl:cdsstmt.obj
 0001:000d4e5c       _get_table_qualifier       110d5e5c f pcl:cdsstmt.obj
 0001:000ce2cb       _make_char                 110cf2cb f pcl:commstmt.obj
 0001:000ce364       _make_short                110cf364 f pcl:commstmt.obj
 0001:000ce60e       _validcommptr              110cf60e f pcl:commstmt.obj
 0001:000cb0ef       _crt_params                110cc0ef f pcl:crtstmt.obj
 0001:000c3048       _matchflagname             110c4048 f pcl:flaglist.obj
 0001:000c3313       _matchflagval              110c4313 f pcl:flaglist.obj
 0001:000c2cc3       _tlookup                   110c3cc3 f pcl:tokenlok.obj
 0001:000c2d85       _nlookup                   110c3d85 f pcl:tokenlok.obj
 0001:000c0de4       _push                      110c1de4 f pcl:pclexpr.obj
 0001:000c0e12       _pop                       110c1e12 f pcl:pclexpr.obj
 0001:000c0e59       _top                       110c1e59 f pcl:pclexpr.obj
 0001:000c0e90       _pval                      110c1e90 f pcl:pclexpr.obj
 0001:000c2b2f       _gobble                    110c3b2f f pcl:pclexpr.obj
 0001:000c2c20       _advance                   110c3c20 f pcl:pclexpr.obj
 0001:000bb4c4       _mac_new2                  110bc4c4 f pcl:pcpp.obj
 0001:000bb507       _mac_new                   110bc507 f pcl:pcpp.obj
 0001:000bb564       _inp_alloc                 110bc564 f pcl:pcpp.obj
 0001:000bb5e0       _cpp_alloc                 110bc5e0 f pcl:pcpp.obj
 0001:000bb63d       _mac_inst                  110bc63d f pcl:pcpp.obj
 0001:000bb6d6       _new_inp                   110bc6d6 f pcl:pcpp.obj
 0001:000bb806       _buf_alloc                 110bc806 f pcl:pcpp.obj
 0001:000bb852       _new_ctmp                  110bc852 f pcl:pcpp.obj
 0001:000bbb5a       _derror                    110bcb5a f pcl:pcpp.obj
 0001:000bbbc5       _mac_del                   110bcbc5 f pcl:pcpp.obj
 0001:000bbca8       _strcomp                   110bcca8 f pcl:pcpp.obj
 0001:000bc5b8       _find_file                 110bd5b8 f pcl:pcpp.obj
 0001:000bc5f7       _mac_copy                  110bd5f7 f pcl:pcpp.obj
 0001:000bc664       _alloc_ctmp                110bd664 f pcl:pcpp.obj
 0001:000bc6b7       _inp_end                   110bd6b7 f pcl:pcpp.obj
 0001:000bca5f       _pperror                   110bda5f f pcl:pcpp.obj
 0001:000bcb3f       _mac_free                  110bdb3f f pcl:pcpp.obj
 0001:000bcb7e       _arg_seq                   110bdb7e f pcl:pcpp.obj
 0001:000bce0f       _b_slash                   110bde0f f pcl:pcpp.obj
 0001:000bce98       _trigraph                  110bde98 f pcl:pcpp.obj
 0001:000bd009       _mac_look                  110be009 f pcl:pcpp.obj
 0001:000bd09f       _cpp_command               110be09f f pcl:pcpp.obj
 0001:000bdae6       _getcppfn                  110beae6 f pcl:pcpp.obj
 0001:000bdb20       _getcppcm                  110beb20 f pcl:pcpp.obj
 0001:000bdcc3       _getcppcpp                 110becc3 f pcl:pcpp.obj
 0001:000bdd0d       _strcomp2                  110bed0d f pcl:pcpp.obj
 0001:000bdd9f       _skip_ws                   110bed9f f pcl:pcpp.obj
 0001:000bdde6       _cmd_detect                110bede6 f pcl:pcpp.obj
 0001:000be0c1       _skip_eol                  110bf0c1 f pcl:pcpp.obj
 0001:000be100       _get_ident                 110bf100 f pcl:pcpp.obj
 0001:000be242       _get_repl                  110bf242 f pcl:pcpp.obj
 0001:000be7f7       _expr                      110bf7f7 f pcl:pcpp.obj
 0001:000bf02a       _cpp_lex                   110c002a f pcl:pcpp.obj
 0001:000bf53b       _ungetcppcpp               110c053b f pcl:pcpp.obj
 0001:000bf579       _to_asc                    110c0579 f pcl:pcpp.obj
 0001:000bf640       _skip_if                   110c0640 f pcl:pcpp.obj
 0001:000bf83a       _get_lp                    110c083a f pcl:pcpp.obj
 0001:000bf891       _get_arg                   110c0891 f pcl:pcpp.obj
 0001:000bfb3d       _pre_def                   110c0b3d f pcl:pcpp.obj
 0001:000bfe63       _expand_ok                 110c0e63 f pcl:pcpp.obj
 0001:000bff3b       _init                      110c0f3b f pcl:pcpp.obj
 0001:000c0050       _mac_table_init            110c1050 f pcl:pcpp.obj
 0001:000bb2c0       _lookup_type               110bc2c0 f pcl:lookup.obj
 0001:000b8157       _checkoutbuf               110b9157 f pcl:decomp.obj
 0001:000b825a       _putindent                 110b925a f pcl:decomp.obj
 0001:000b84ba       _outwordcomma              110b94ba f pcl:decomp.obj
 0001:000b866e       _make_op_string            110b966e f pcl:decomp.obj
 0001:000b9d00       _outlongword               110bad00 f pcl:decomp.obj
 0001:000b9e34       _do_if_char                110bae34 f pcl:decomp.obj
 0001:000b9ff4       _spush                     110baff4 f pcl:decomp.obj
 0001:000ba0e4       _spop                      110bb0e4 f pcl:decomp.obj
 0001:000ba162       _sfree                     110bb162 f pcl:decomp.obj
 0001:000ba17b       _dobinstr                  110bb17b f pcl:decomp.obj
 0001:000ba278       _dounistr                  110bb278 f pcl:decomp.obj
 0001:000baa19       _cat_array_ref             110bba19 f pcl:decomp.obj
 0001:000bac58       _make_prefix               110bbc58 f pcl:decomp.obj
 0001:000baca3       _make_suffix               110bbca3 f pcl:decomp.obj
 0001:000bacf2       _tohex                     110bbcf2 f pcl:decomp.obj
 0001:000bae24       _labelcompare              110bbe24 f pcl:decomp.obj
 0001:000baecf       _outnamecomma              110bbecf f pcl:decomp.obj
 0001:000aedae       _real_get_item             110afdae f pcl:compile.obj
 0001:000b0192       _tohexnybble               110b1192 f pcl:compile.obj
 0001:000b01dd       _ccon2byte                 110b11dd f pcl:compile.obj
 0001:000b0224       _scon2bytes                110b1224 f pcl:compile.obj
 0001:000b03d8       _makelabel                 110b13d8 f pcl:compile.obj
 0001:000b05f2       _labelx                    110b15f2 f pcl:compile.obj
 0001:000b0652       _unrefdlabels              110b1652 f pcl:compile.obj
 0001:000b098e       _makesubref                110b198e f pcl:compile.obj
 0001:000b0a2a       _makeindsubref             110b1a2a f pcl:compile.obj
 0001:000b0be9       _parsefunckey              110b1be9 f pcl:compile.obj
 0001:000b0e01       _push                      110b1e01 f pcl:compile.obj
 0001:000b0e58       _pop                       110b1e58 f pcl:compile.obj
 0001:000b0eb1       _beginfixups               110b1eb1 f pcl:compile.obj
 0001:000b0f65       _endfixups                 110b1f65 f pcl:compile.obj
 0001:000b0fbe       _do_fixups                 110b1fbe f pcl:compile.obj
 0001:000b1026       _addfixup                  110b2026 f pcl:compile.obj
 0001:000b10bc       _addbreak                  110b20bc f pcl:compile.obj
 0001:000b11fc       _handle_one                110b21fc f pcl:compile.obj
 0001:000b13c7       _intorstring               110b23c7 f pcl:compile.obj
 0001:000b151b       _good_let_target           110b251b f pcl:compile.obj
 0001:000b177b       _good_move_stmt            110b277b f pcl:compile.obj
 0001:000b1c64       _valid_arg_count           110b2c64 f pcl:compile.obj
 0001:000b1d93       _make_ind_ref              110b2d93 f pcl:compile.obj
 0001:000b1ec3       _notASCIIfield             110b2ec3 f pcl:compile.obj
 0001:000b219a       _noquotes                  110b319a f pcl:compile.obj
 0001:000b2210       _make_array_ref            110b3210 f pcl:compile.obj
 0001:000b2483       _separate_DDR              110b3483 f pcl:compile.obj
 0001:000b256c       _span_bracket              110b356c f pcl:compile.obj
 0001:000b2612       _found_resword             110b3612 f pcl:compile.obj
 0001:000b273b       _auto_define               110b373b f pcl:compile.obj
 0001:000b27f1       _valid_array_ref           110b37f1 f pcl:compile.obj
 0001:000b29ae       _st_make_time              110b39ae f pcl:compile.obj
 0001:000b2e0c       _fix_local_words           110b3e0c f pcl:compile.obj
 0001:000b2ec2       _has_arglist               110b3ec2 f pcl:compile.obj
 0001:000b2f7e       _parse_args                110b3f7e f pcl:compile.obj
 0001:000b2fda       _get_args                  110b3fda f pcl:compile.obj
 0001:000b32a4       _is_ref2local              110b42a4 f pcl:compile.obj
 0001:000b3324       _makesubname               110b4324 f pcl:compile.obj
 0001:000b3398       _continue_fixup            110b4398 f pcl:compile.obj
 0001:000b3402       _good_argc                 110b4402 f pcl:compile.obj
 0001:00099783       _epush                     1109a783 f pcl:pcl2xxx.obj
 0001:000997bd       _epop                      1109a7bd f pcl:pcl2xxx.obj

FIXUPS: 9a6d5 27 9 11 3a 1f 201 e6 1d 14 11 fffff33f 4f 26 1c 10 1c 18
FIXUPS: 99ebc 17 14 23 1e 23 6a e5 a0 180 77 c 1c 81 5f 15 27 15 11 164
FIXUPS: 9a630 2c 19 2b 9 ffffec78 18e 42 16 1c 17 59 19 f 64 3c 54 17 39
FIXUPS: 99736 21 54 13 3c 14 184 22 22 25 c6 74 6b d2 31 70 70 23 ffffe88b
FIXUPS: 98643 12 12 12 12 12 16 27 e0 22 28 2f 6e 8b 11c 29 3b 42 477 65
FIXUPS: 98fdd 1df 39 21 1e 13 24 29 2e 10 2c 1a49a 40 b5 4d 32 121 1b6
FIXUPS: b3e22 48 124 25 51 af 6e 1d0 69 dc 35 28 1b 51 1b fffe4066 f 12
FIXUPS: 985b3 12 12 12 12 12 12 19858 b9 1e5 37 62 149 39 34 148 3b 55
FIXUPS: b25b0 1ec 56 76 fa 56 76 12f 250 98 2a b0 46 49 73 84 23e 34 20a
FIXUPS: b3560 1ef ffffcf9a 4a 8a 3d 3d 44 28 75 51 186 1d 2b4 1dd 55 213
FIXUPS: b1269 11f 1b 4d 1e 1e 1fb a8 125 46 16e 9c d4 25 37 2a 2a1 ffffcf3f
FIXUPS: aedc7 123 8 23 45 3d d1 3d fa 9d 29 27 33 425 2f 1b 6a be e2 238
FIXUPS: afd97 20 28f 262 3d 19a f 22 e7 58 53 ffffd9a9 5a 141 49 49 45
FIXUPS: ae27b 48 10a 22 24 54 17 92 17 95 26 49 1f 13a ce 82 49 f2 8 1d
FIXUPS: aea53 48 f1 a9 2f dd ffffe231 11d 10d 7b cf 9c 27 31 9c 108 5f
FIXUPS: ad614 5f 96 31 45 33 45 31 63 2b 6e 364 ac 9 5a 39 39 39 39 8b
FIXUPS: adf37 ffffe35c 41 3f 2d 5a 6b 2d 76 9d 33 19 4f 1e 2c 4a 2d 36
FIXUPS: ac74e 55 2d 9e 10e 3f 38 fa ba 7b f5 b1 8e a1 15 ffffe33d 64 72
FIXUPS: ab3d0 8c c2 a4 6a 11c 3e 30 75 30b 152 5e 19 f 72 1b0 8 c 46 27
FIXUPS: abfc8 65 2f 3d 8e 2d 5a 7c 2a ffffd293 127 8a 84 17 4e ee 1e 2d3
FIXUPS: a9c81 1b9 57 32 14 50 19 106 1b 6a f6 2f0 1e 4ea 517 70 d2 30 40
FIXUPS: ab124 46 60 44 ffffd4cd 38 c9 2d 5a 6b 2d 5a 6b 3b 93 120 aa 2c
FIXUPS: a8cef 2c 4a 2c 9b 39 3e c1 22 f0 84 17 cc 29 27 a6 e7 a9 ffffe65b
FIXUPS: a7aff 2d aa 3b 1d 14 9 53 27 171 25 32 2d 75 22 19b 65 d8 47 47
FIXUPS: a82fe 47 47 47 55 98 31 40 86 5f 2d ffffe819 a2 31 3d cb 56 27
FIXUPS: a71e9 19 11b 4e 1e 21 1f cf 32 6c 4d 27 a0 97 24 3c 87 24 54 53
FIXUPS: a7919 24 50 27 d7 1448a 8e 19 15 30 19 fffea00f 65 a4 7b 70 40
FIXUPS: a62fd 131 298 2d 5a 70 24 f 25 2c 1d0 c0 30 42 4d 92 31 3d c7 d4
FIXUPS: bb828 11 91 67 74 27 d 49 64 c 70 19 18 30 19 1f 88 13 11 2c 3f
FIXUPS: bbcdc a6 de f 24 f 17 a 24 f a fffff0cc 14 2e 1a7 20 f4 23 5a 1d
FIXUPS: bb3a0 26 26 5c 61 4e 18 d 91 d 11 81 32 1d 1a 1e 10 11 10 35 1d
FIXUPS: bb767 a4 fffff053 9 18 9 18 9 18 9 18 9 18 9 18 9 18 9 16 1e 2a
FIXUPS: bab73 93 2d f a 32 53 14 f 2e 47 3a 57 fffff83f 18 9 18 9 18 9
FIXUPS: ba6b4 9 18 9 18 9 18 9 18 9 18 9 18 9 18 9 18 9 15 15 15 18 9 18
FIXUPS: ba846 fffff649 39 85 3a 10 11 40 65 19 15 33 19 1b 11 1e 40 65
FIXUPS: ba1cf 15 33 19 1b 11 17a 11c e 6c 73 18 18 9 18 fffff00b f 18 15
FIXUPS: b96a6 20 93 13 14 d 23 d bf 334 df bd 16 16 16 16 16 16 16 1c e
FIXUPS: b9e20 11 e 10 11 e 10 fffff3b5 9 12 28 5e 49 9 c 44 9 18 11 2e
FIXUPS: b93df 2f f 41 9 2f 46 9 2f f 41 9 2f f 15 3b 9 f 15 fffff1c7 13
FIXUPS: b8835 19 4b 14 72 1f 1f 7a 6a 11 d 60 19 13 33 19 a 78 29 29 29
FIXUPS: b8c3e 39a 2f 53 17 3a 1a 3b c0 fffff05d 63 10 39 12 17 a 63 10
FIXUPS: b8394 f 63 10 30 1b 15 63 10 1f 2e a 63 10 c d c 63 10 5a 94 10
FIXUPS: b87d6 fffff46d 32 a 2a 25 6d 10 c 2c c 68 10 25 23 29 11b a 12
FIXUPS: b8002 a a b0 c 63 10 1c f 3e 12 17 27 a fffff4a5 33 19 a 63 10
FIXUPS: b77a6 30 a 72 10 3e 1f 12 a 63 10 3a 63 10 a 56 20 c 15 63 10 2c
FIXUPS: b7b4c 71 2f 10 fffff60c 63 10 30 15 63 10 a 2c c f 63 10 a a 63
FIXUPS: b747e a 18 24 9 1d a 63 10 a 1b 15 63 10 6d 19 fffff371 63 29 17
FIXUPS: b6abe 10 3d 10 157 f c 68 73 10 6f a aa 10 32 68 10 1a 88 10 5f
FIXUPS: b7070 73 10 5f a 79 29 fffff44e a 72 10 1a f 63 10 a 46 20 c 15
FIXUPS: b680f 1b c 26 a 1b c c 15 63 10 c c c 63 10 c c 31 fffff6df 39
FIXUPS: b6155 12 31 c 16 63 10 a 4e 3d a 30 3d 63 10 a 39 3d 63 10 1c 27
FIXUPS: b6511 c f 63 10 15 4d 3c fffff501 48 48 48 63 10 a 36 9 a f 63
FIXUPS: b5d5e 38 63 10 1f 24 12 63 10 1f 24 24 10 63 10 34 30 30 30 28
FIXUPS: b5564 63 10 a 12 53 a a 63 10 a 22 24 24 24 69 10 31 12 63 10 6f
FIXUPS: b591c 13 33 19 13 48 48 48 48 48 fffff5b6 10 c 63 10 c 24 9 c c
FIXUPS: b51a9 15 63 10 26 2c c f 63 10 26 a c 63 10 24 63 10 1f 52 63 10
FIXUPS: b4b4d a 63 10 a 48 32 10 92 8c 33 19 13 33 19 a 40 c 39 63 10 c
FIXUPS: b4f41 30 f 63 10 c c c 1d 15 bcb9 15 5 3f 6 33 5 152 29 10 28 5
FIXUPS: c0f7f 5b 47 23 ffffb042 51 ffff8462 2d0 5f 34 49 11a 18 9 a 25
FIXUPS: b4a58 a 42 1f bbde 21 1a 33 d7 29 35 5 7a 9 7a 16 19 84 4a 37 77
FIXUPS: c0b19 42 19 34 c 4e 18 1c 1c 13 2e 18 1c 13 1c fffff33e 78 37 2b
FIXUPS: c0151 6c 2f a 3b a 12 27 a 14 d 19 84 12 24 12 24 12 24 12 3b 12
FIXUPS: c0478 12 24 dc a2 4b ffffe98f 32 23 23 4d 65 41 48 39 2f 51 6d
FIXUPS: bf2f5 19 7b 36 2a b3 8c 3b 30 29 24 46 3c 3a d5 41 24 95 76a 21
FIXUPS: be84a 11 4f 23 81 2e 2e 31 43 53 8 93 3a 31 31 73 31 2b 82 b0 47
FIXUPS: bee17 88 e 23 1e 1e 23 32 23 23 41 fffff3ef 14 16 47 4d 2e 2b 17
FIXUPS: be53a 8 1e 6 b 32 5 33 37 64 5 27 5 14 8 f 9 15 3c 5b 5e c 21 6
FIXUPS: bddfb 3a 37 52 49 169 3c 16 f 13 6 12 d 10 6 10 c 21 8 c 21 8 c
FIXUPS: be1c6 e 1e 8 a 126 19 a 6d ffffec79 33 20 1e 23 28 151 f c ab 2fb
FIXUPS: bd629 67 99 22 a4 f f4 21 21 14 103 1e 13f 24 4f 51 6d 56 24 2c
FIXUPS: bdda3 ffffe61f 5d 17 17 17 17 17 19 27 21 1e 6f 135 2b 8 c0 31
FIXUPS: bc822 58 6e 156 3b 2f 37 1b 139 13f ab b1 ae 35 26 58b6 9d 88 123
FIXUPS: c2b5d 123 48 12e 59 2e 114 110 36 73 96 1f3 ea 108 db ffffdc41
FIXUPS: c134f 6e 6e 70 40 40 54 58 40 41 42 40 2791 23 23 23 23 26 51 ffffd8df
FIXUPS: c194a 5d 1b 44 51 a 12 14 11 25 10 14 3e 26 c 186 f 3d 31 3e 85e
FIXUPS: c26ce 9f fe 34ff 29 82 22 6f 3d1 68 1e 173 33 2b9 33 482 2a9 10a
FIXUPS: c7039 4e ffffcf0d a3 1f 101 a2 97 44 13 11c fffff8af 47 7b 7e 23
FIXUPS: c3e38 c43 2f7 39 39 39 39 78 4f 51 84 119 4e 19c 29 51 65 3c 4b
FIXUPS: c5472 88 3a 48 89 63 77 1cb 41 22 48 b1 b4 74 1b32 2e 24 6d 2e
FIXUPS: c776f 34 22 2e 24 73 22 34 22 2e 24 4a 24 22 ffffca75 7a 37 173
FIXUPS: c46be 22 5d 8a 4e 82 8a 41 cb 3d80 14a 291 39 61 28b c2 e3 24 22
FIXUPS: c90c6 d3 c9 24 ffffdfb6 47 24 69 22 2e 24 6d 24 55 2e 24 6d 2e
FIXUPS: c7579 2e 24 73 1ee8 69 49 be 4f 35 1e 2d 39 1e 32 43 ffffe2a5 28
FIXUPS: c7b1c 14a e4 24 29 f6 24 5a c8 5a 151 3e 30 151 14a 17a 4f 13 2512
FIXUPS: cab93 41 49 49 1e 2f 6c 1e 41 1e 41 37 1e 52 6c 37 1e 64 37 1e
FIXUPS: cb085 1e 41 1e 41 9d 49 6c 1e 2f 1e ffffef3a 3b 1e 3b 97 43 79
FIXUPS: ca49a 79 79 6d 86 33 1e 39 85 1e aa 1e 3b 1e 3b 1e 3b 37 1e 5e
FIXUPS: caa32 41 49 1e 2f 1857 187 49 23 9e 40 40 ffffd461 61 1e 5e 1e
FIXUPS: c9c08 1e 3b 97 1e 3b 43 79 79 79 79 6d 9c 1e 3b 1e 3b 1e 29 a2
FIXUPS: cb8b4 1a5 65 72 21 65 62 21 40 53 38 2f 68 15 16 3f 21 bd 58 94
FIXUPS: cc14b 4f 1a 3b 1a 3b 1a 3b 1b 3b 1b 3b 26ef 63 6a 6a 6a 238 7c
FIXUPS: ceea6 ce 1d be 1d 14d 11b 15 84 15 ffffc0c9 48 91 1a 32 20 1a 32
FIXUPS: cb62a 1a 32 69 15 d3 21 21ae 71 1d c4 1d 517 16 7d 46 62 1d 4e
FIXUPS: ce34b 1d 45 103 17 1d 45 1d 17 1d 56 78 3f 1d 55 77 1d 1f0 47 1d
FIXUPS: cc86b 65 54 16 47 5e 57 73 1d a5 ea 1d 71 1d 71 1d c4 1d 8b 5ed
FIXUPS: cd587 54 16 47 5e 57 73 1d 71 fd 1d 71 7797 1e1 32 40 3c 2b 9c
FIXUPS: d54c1 30 17 14c 3a 41 1e ab 49 371 15 2c 76 15 14 e4 2c 17 ac 1e
FIXUPS: d5e37 ffff6862 134 6a 17 74cd c9 b1 ac 1d1 74 1d1 ff bb 6c 57 56
FIXUPS: d46fb 86 12a e0 4b 6f 56 5a 9f 5f 57 c3 6c f3 6f 3c 2b 8f 5b c6
FIXUPS: d29cc c0 be 77 7a 1b7 94 cd 1e 1ef 32 5e 30 17 171 3e 1e 7a fd
FIXUPS: d3604 ea 34 fd 48 45 6b a0 6b 80 ac 6d 11d ffffdbd8 2c 11e 17 32
FIXUPS: d1a6f b6 84 4a a7 57 144 b7 6b a2 57 105 b7 6b a2 57 10e d3 2f
FIXUPS: d262b 6d 40 45 84 57 102 5b ffffdc26 53 c3 56 54 37 6e dc 62 8f
FIXUPS: d0a44 135 9b db 180 60 111 73 9c 9c e3 66 85 7e 155 6f 66 f 85
FIXUPS: d1761 106 17 4d76 25 11 18 a 1b 1b ffff9027 4f c2 6c 90 d5 97 15f
FIXUPS: cfc05 99 4a 83 fd 76 e6 99 1e 1ef 32 5e 30 17 171 3a 71 5a95 2e
FIXUPS: d603f 1f 1f 5d c 16 c a 1b a 62 2c 13 18 a fe 40 a 2a 11 18 f 7b
FIXUPS: d6456 11 18 2f a 113 11 26a 32 38 c 10 33 c 15 37 32 38 c 10 14
FIXUPS: d69fd 2b 9 17 c 1b 37 9 15 fffff3f2 20 15 9 2b 33 50 f 35 121b
FIXUPS: d720d 17 c 17 c 1f c 1f c 2e c f c 1f c 17 c 2e c 2e c 17 c 2e
FIXUPS: d741d 17 c 45 c 17 c fffffaba c 17 c 17 c 17 c 17 c 33 9 14 c 2e
FIXUPS: d709c 17 c 17 c 17 c 17 c 2e c 17 c 17 c 1f c fffffb54 c 17 c 17
FIXUPS: d6d79 17 c 17 c 17 c 17 c 17 c 17 c 17 c 17 c 2e c 17 c 17 c 17
FIXUPS: d6f34 17 c 282c 12 12 12 12 12 12 12 ffffd305 10 9 2c c 2e c 17
FIXUPS: d6bb4 17 c 17 c 17 c 2e c 17 c 17 c 28 22 12 25e2 f a f a 19 c
FIXUPS: d9350 1d da 12 1c 15 11 c f a f a 19 c 33 12 30 12 39 9 12 162
FIXUPS: d974d 12 12 fffff6e1 12 63 c 38 1d 14 c 18 90 c 1f 14 c 34 9 29
FIXUPS: d90aa 21 9 14 f 1a 14 c 18 53 df 12 1c 15 11 fffff776 12 9 12 9
FIXUPS: d8a8d 9 6f 12 17 c 17 c 17 c 15 23 c 94 34 12 12 12 12 55 c 14
FIXUPS: d8d5e 14 c 36 12 fffff94e c 3b 9 2b 9 17 c 3d c 17 c 15 2b c 2b
FIXUPS: d88a7 f 9 28 9 f 9 28 9 f 9 3d 31 3c 1f 22 fffff963 30 12 1a 23
FIXUPS: d842d 29 9 2b 9 f 9 52 9 a 35 f 14 f 30 17 c 2e 29 9 a 2b c 2e
FIXUPS: d86a2 52 9 fffff8f8 f 9 f 9 f 9 42 42 9 f 9 f 9 4a f 2b f 2b f
FIXUPS: d8228 c c 52 42 1c c 1e 1d 17 c 33 fffff86f 14 f 31 9 2b f 12 21
FIXUPS: d7cf1 f 43 9 48 9 23 9 23 9 23 9 63 9 f 9 67 68 9 a 2b f 2b fffff897
FIXUPS: d78c8 1c c 1e 1d 17 c 33 12 30 12 30 9 34 9 14 f 31 9 12 23 f 29
FIXUPS: d7b1e a 2b f 40 11 f 2b 2269 15 1c 9 14 19 9 14 19 9 14 ffffd689
FIXUPS: d75b8 d 10 9 a6 12 63 c 38 1d 14 c 18 14 c 1f 14 c 4e 38 224c 3b
FIXUPS: d9b07 31 17 26 9 14 9 12 17 c f 26 9 19 9 e0 2a 1c 9 14 c 25 15
FIXUPS: d9dd5 9 14 a 9 14 28 e7a 15 2c 12 41 9 12 24 18 2c 29 12 21 ffffea75
FIXUPS: d98bc 9 4b 9 1e 9 17 15 17 14 17 17 17 17 c 56 c 56 e77 18 1a 17
FIXUPS: da989 30 18 2c 1d 9 22 9 29 12 31 2c 20 9 26 9 11 26 9 11 26 9
FIXUPS: dabcf 26 9 11 12 21 fffff9e6 14 1c 9 17 1c 9 17 1c 9 17 2d 9 f
FIXUPS: da73e 17 12 43 18 25 9 17 24 9 17 22 12 32 1a 24 9 12 fffffa01
FIXUPS: da327 9 17 1c 9 17 2d 9 f 9 17 12 7d 18 18 18 18 18 18 1c 9 10
FIXUPS: da545 1d 9 f 1c 9 17 1a 9 fffff9ec 8f 18 18 18 18 18 18 1a 1c 9
FIXUPS: da133 9 1d 9 2a 1d 9 f 1c 9 17 1d 9 1d 9 1a 9 4f 14 1c 9 1b8f 14
FIXUPS: dbf7b a0 137 5c 92 14 ffffecd2 10 9 2d a c 11 11 a 22 17 11 a c
FIXUPS: db01f a 30 17 a c 11 ffffeea2 73 10 1876 8b 14 10 1b c 25 10 3e
FIXUPS: db9b8 19 23 16 8c 27 f c 1c 12 c 15 19 114 27 f 21 12 c 15 19 94
FIXUPS: dbd9f fffff51f c 12 a 2e c 12 a 2b f a 18 10b 20 21 21 13 52 28
FIXUPS: db5a1 a df b4 23 17 d 14 3c 10 9 2b f fffaeb71 12 11 12 37 12 c
FIXUPS: 8a431 12 3b 56 dc03 52 3c 14b 440d3 f f ffffed78 10 9 a2 14 c 26
FIXUPS: db226 12 a 26 c 12 a fffb082c 19 19 19 19 49 3c 19 19 19 19 19
FIXUPS: 8bc3b 19 19 19 19 19 19 60 ffffe500 11 11 10 1d 15 d 10 93 11 29
FIXUPS: 8a38b 11e7 16 c e 2f 7b 1c 51 17 9 66 1d c 14 3c c 14 3d 49 62
FIXUPS: 8b941 19 19 19 19 19 19 19 4c 35 19 19 fffff31b 16 48 22 56 a4
FIXUPS: 8af4e a5 27 3c e3 14 44 3f 26 37 32 31 9 26 37 32 41 6c 1a 37 16
FIXUPS: 8b45f 2b 92 27 20 d00 5 35 3b f 2f 22 14 79 13f 18e 1f 9b 19 30
FIXUPS: 8c8e5 23 20 ffffdf31 16e 1d 11 a3 36 36 33 19 42 89 91 14 9c 3a2c
FIXUPS: 8e79d 1b 3d 14 15 c 13 47 e9 3a 18 190 16 1c6 ffffd06e 27 8 2f
FIXUPS: 8be89 1c 5 1f9 37 55 39 15 3b 1a 41 21 27 ebd 1b 1c 42 a87 21f
FIXUPS: 8de8c 18 2c 46 96 10 10 35 c d8 33 11 146 1e 7a f 1c 305 41 21
FIXUPS: 8e6b2 16 22 12 10 10 224c 41 18 53 21 4c 21 43d 450 3fc 6c 10e
FIXUPS: 919a5 1b c9 28 15 fc 17 10 ffffae10 15 23 e5 25 18 42 47 71 2e
FIXUPS: 8cd42 3bd 2bf3 26 1c 37 1a 203 86 39 1ec 35 63 27 e e e 32 16 10
FIXUPS: 90384 1e 22 25 e 55 d5 27 79 d2 17b cd 21 33 ffffe9c2 f 10 c f
FIXUPS: 8f363 20 66 1e 18 36 17 11d 187 17 17 17 17 b2 22 2b 1f 262 29
FIXUPS: 8fb43 34 2e 34 2e 34 9b e 31b7 fffff24a 43 43 44 56 4e 1b5 19 19
FIXUPS: 92462 a8 2d 2d 30 fffff8e5 5f 36 c 26 19 ffffceed 2b2 79 78 35
FIXUPS: 8f22a 19 20 17 1d 2f 4154 ff fffffb37 42 23 14 91 a 63 24 e a 24
FIXUPS: 93235 a 29 a 29 a 29 a 29 a 29 a 24 e a fffff5d7 1dc 8a 2cb f4e
FIXUPS: 93eb0 f 6f 35 5d 13 37 de 44 5f fffff566 1f 67 17 d 51 3c 46 113
FIXUPS: 9398e 8e 1f a8 30 14 30 14 30 fffffac4 25 fffffd24 2436 28 2e 13
FIXUPS: 95852 13 fffff385 42 9b 3f 39 38 3f 15 248 10e 79 68 fffff0ac 22
FIXUPS: 94335 2e 4ab 37 af 35 fffff2a0 36 31 13 44 37 30cb 8e ffffeae0
FIXUPS: 95968 b7 7e f 2b 20 44 14 23 25 78 c 49 fffff89d 37 1b 44 6a 1b
FIXUPS: 9567d 4b 68 12 14 12 22 12 12 12 223c 35 fffff907 32 35 27 fffffd9a
FIXUPS: 971ad 27 22 a 27 22 a 58 20 36 a ffffe9b9 46 6a 135 172 1e 85 1c6
FIXUPS: 962a7 34b 184 11b db 78 ecd2 2e 20 138 2b ffff2816 ffffffd5 fffff3e1
FIXUPS: 9749e ca 79 23 35 28 4b 29 20 30 4c 19 4b e e 16 be 29 16 20 29
FIXUPS: 97959 10 c e2a1 23 a7 4f 66 194 1d 94 fffffa0d 2a 5f 4d d fffffe0a
FIXUPS: a58de 52 2f a fffff758 34 1c 16f 1a 7b 12 18 2b 14c 2b 29 17 132
FIXUPS: 898c4 23 29 20 18 26 18 a2 16 1d 69 27 b2 20 24 13 45 1f 16 1c
FIXUPS: 89cb0 1c 67 97 bc 20 1a 4b 39 13 2f 40 fffff317 10 29 2f 1c 27
FIXUPS: 893af 10 c1 1d 1d 1d 1a 1b 42 3d d 17 18 23 65 4d 37 c 19 29 9f
FIXUPS: 89806 33 14 21 1f fffff5e1 10 13 44 2a 19 2c f 20 17 6b 18 19 f
FIXUPS: 8907e f 25 28 25 19 f 24 2c 37 47 12 10 37 12 17 21 33 fffff715
FIXUPS: 889f3 82 32 30 90 22 12 17 2a 1b 12 17 53 35 16 18 1d f 2d f 29
FIXUPS: 88d75 19 f 16 d 11 18 3a f 16 fffff4c7 2f 18 6d f 37 11 25 4e 23
FIXUPS: 884bc f 42 5c c 22 1a 48 15 17 4f 5b 56 5b 52 32 63 3e 2c 56 1d
FIXUPS: 889af fffff4fa 14 1c 36 44 2a 1d 22 30 c 52 3d c 14 1c 36 44 2a
FIXUPS: 88184 22 30 c 4c 12 f 24 c 19 18 1d 19 1d fffff678 8c c 12 23 19
FIXUPS: 87b24 6b 23 22 6c 10 24 21 1f 12 13 29 c 14 1c d 13 29 c 1a 19
FIXUPS: 87dee 59 c 14 36 fffff57a 27 e 13 37 19 23 19 2a e 17 c 1f 49 15
FIXUPS: 875e6 70 43 d 13 20 4c 15 23 70 43 d 13 20 bd 2d 11 fffff625 52
FIXUPS: 86ff5 27 d 13 3c d 13 6a 4d 11 12 1e 12 17 2a f d 38 12 31 47 2f
FIXUPS: 87300 f 40 a 40 27 e 13 fffff674 4c d 13 20 44 15 23 5e 36 d 13
FIXUPS: 86c31 44 15 23 5e 36 d 13 20 2f 15 49 1d 27 d 13 26 d 13 66 fffff6fc
FIXUPS: 8663a 39 32 1c 18 20 1f 32 39 c e 20 11 c c 2d 55 d 13 20 21 2d
FIXUPS: 8691a 3e 24 13 20 20 2f 15 23 fffff688 e 24 20 74 9 27 7d 40 2f
FIXUPS: 862cc 2f 4f 27 3f 38 20 35 d 13 20 2c 21 1c 18 26 20 28 d 13 20
FIXUPS: 865e2 fffff63b d 13 19 27 30 21 3c 36 20 2b 2d 12 13 20 39 9 c
FIXUPS: 85e74 42 19 19 36 54 20 1c 4c 3b 2e e 13 20 fffff76b 21 71 a 35
FIXUPS: 858ed 13 c 1a 1a 1f 44 c 38 c 2a c 20 6e 12 13 19 1d 23 e 13 19
FIXUPS: 85ba3 12 13 19 23 fffff7d7 76 c 34 19 18 4a c 35 d 13 c 30 1a 1f
FIXUPS: 85626 c 38 c 2a c 20 3e 12 13 19 1c 19 d 13 19 28 fffff71c 21 19
FIXUPS: 84fba 3f 12 13 48 c 2a 19 20 e 17 c 21 19 82 c 7a c 34 19 18 17
FIXUPS: 852e2 e 17 c 21 19 82 fffff6f5 1a 18 1e 23 19 1b 19 20 e 37 5b
FIXUPS: 84c6d 31 4f 4b 56 c 3d 19 20 e 17 c 31 e 17 c 18 13 d 13 ffffe48e
FIXUPS: 8338a 55 11 2f 26 45 1d a2 21 21 2f 21 21 d77 ca 1f 40 5d 9c cb
FIXUPS: 84752 211 c 32 59 1a 1d 19 26 26 15 ffffe366 50 46 4b 2a 15 44
FIXUPS: 82f9f 26 1d 13 59 40 1e 87 14 10 7f 20 1c 14 20 33 f 1f 42 1d 19
FIXUPS: 83330 d 19 13 d55 fffff6b3 20 36 29 bc 24 4d 1f8 1f 4f 268 1d 1c
FIXUPS: 83e7f 1d 24 ffffea47 2f 28 55 12 28 36 12 2d d7 15 42 23 1a1 57
FIXUPS: 7b74f 76 196 cd 94 37 13 53 42 54 8a 6e 11 11 64 7d c 17 1b b0
FIXUPS: 7bf64 49 15 814b 4f 1bd 14 12 fffffc9c 4b 47 c ffff80a8 8a d9 ca
FIXUPS: 7c39d 3d 27 24 48 ffffee6f 12 f d 37 f f5 b b b 19 3b 20 19 8 46
FIXUPS: 7b550 15 15 10 22 16 53 31fc 14 1e2 53 20 56 c 1e 1f 18 2b 10 c
FIXUPS: 7ebb0 128 18 11c 7 8 26b 16e 447 114 218 10e 195 8f c 149 ffffc258
FIXUPS: 7c053 22 22be 11 28 a 8 7e 20 3b 41 27 18 27 97 34 2f 31 10 14
FIXUPS: 7e66c 10 14 2b 34 34 1f 1d 14 1d 14 1f 1d 14 ffffee54 27 46 39
FIXUPS: 7d6fa 49 3c 75 c 10a 10 14 10 27d 2b 8 13 1ae 1c 8e 9c 28 3c 41
FIXUPS: 7dfe3 2a f 3d 254 13 2b 24 ffffe475 9f 10 2d 8 ad 48 c c f 25 44
FIXUPS: 7ca38 c 2c 44 63 19 14 244 100 58 3e ee 46 39 c 49 4a 2fc 1ef 2b
FIXUPS: 812e9 8c 75 28 81 1e 8 13a b8 91 b6 1f 648 fe b8 108 30 18a 75
FIXUPS: 7c4db 1c 1c 1c 22 22 45 1c 18 8 25 3a 11 3930 38 e 3c 12 1f cc
FIXUPS: 8011b 32 1f 8 36d 27 24 12 7b b3 33 7f 2e 2c6 37 69 149 56 11b
FIXUPS: 80eb0 1a3 10e 7f b6 2c ffff90db 3f 280 18 12 18 25 d 4e 46 31 c5
FIXUPS: 7a09f 14 48 1c fffff804 15 1a 1a 28 59 45 24 25 2b 8f 41 8a4d 15
FIXUPS: 7ff65 1b ffff51fc 48 104 9a 2e 8b 6d dc 77 8a f6 63 82 d1 b5 93
FIXUPS: 75ae4 8e 2e fffff44a f2 19 b fffffe20 1e 1e c 1b 536c 18 12 18
FIXUPS: 7688e 16 153 85 65 135 4e 32 14 1a 33 4d 80 280 19 b 103 16 50
FIXUPS: 77261 367 fa 66 e3 129 a9 ffffe231 3f 36 1a 34 43 3753 b4 b4 ffffe4c7
FIXUPS: 77b55 6f 82 a8 7e ffffdfd2 d3 15c 27 3d 29 25 15 1d 1d 10 1e 10
FIXUPS: 761c7 2b 26 30 125 1f ce 11 47 3c2 18d5 164 88 35 34 66 5d 75 133
FIXUPS: 7867e 75 75 57 dd 167 35 36 4f 18d 23 23 163 20 20 c9 b8 38 1b
FIXUPS: 79197 b4 b4 b4 ffff5569 53 53 53 53 53 53 53 67 67 72 67 77 72
FIXUPS: 6f2ac c9 9b 78 73 88b3 25 44 d a8 59 5c 5c b 2f 10 c d8 ffff770e
FIXUPS: 6f867 77 cf 72 3a ffffdcff 1eb 7f 1d 48 11 d e 231 b8 e5 54 2a
FIXUPS: 6dfe0 12 b4 4f 90 45 29 13 9 e0 15a 187 49 1ee4 75 42 ad 2c 68
FIXUPS: 70782 a7 1b c 1e 1e 26 e9 8b 55 15 3f e6 11 13 2a 7b 65 40 c5 5d
FIXUPS: 70eae ffffed16 5a 79 fffffa87 1947 23 13 13 18 46 48 44 20 c1 16
FIXUPS: 712dd 1f b9 ffffea0c 7d 89 10a 18 17 16 70 a6 b 50 2c 2c 13c 71
FIXUPS: 7041d f 67 11e0 cd 11 14 ae 11 14 130 ac 1a9 20 f 27 73 3e 2b 82
FIXUPS: 71d94 10 9 a0 af 2c ffffefc1 6b 1e 14 13 19 14 16 19 1277 2b 63
FIXUPS: 72311 7c 6f 51 31 c 19 c4 e e 37 118 fa fffff880 25 17 18 3f 40
FIXUPS: 71402 a 61 b c6 41 3f 36 c 19 2e65 13 26 aa 2b 28c bb 100 11f e0
FIXUPS: 74c13 23 81 86 c fffff340 fffffeae ffffecaf 508 2a6 1a fffff507
FIXUPS: 729a3 ce 3f 91 4c fffff5e2 d 4b 24 4c ffff53cd f3 2b 45 2b 7b f4
FIXUPS: 67981 82 e2 26 9d 2a 12 3c 6e ffffea82 2f3 2ea d461 28 10 56 94
FIXUPS: 74281 2d 30 2a 30 1d 52 83 ffff293b 3c 5c 7f 4e 4e 6e 6e e d 27
FIXUPS: 6704b 1a e f 26 18 77 6c 85 1a 25 5d 1e 106 4d 4b 23 29 42 5a 4e
FIXUPS: 688ec 12a 3a 3a fffffb10 30 16f 3a 3a fffffc42 4e 76 fffff888 6e
FIXUPS: 67df7 132 bb 16 1d 26 20 7 1b 14 19 8 24 16f c3 27 ffffe9d8 4b
FIXUPS: 68e21 23 44 2d 2d 55 4d 3f 2d 2d da 35 43 3f 2d 2d 37 13 d 49 27
FIXUPS: 69303 17 60 4f 4f 23 27 15f 69 ad fffff181 20c7 3a 1d 6a 41 3a
FIXUPS: 6aa78 67 42 ffffefe7 6e 7b 55 48 fffffadb 5 5 5 5 5 49 26 100 fffff2a0
FIXUPS: 68b9e 3d 53 40 54 52 6f 40 11b2 60 4c e 30 d 82 15 170 21 87 c
FIXUPS: 6a32f 34 32 d 28 27 27 e a6 56 d d0 b0 49 1d 43 2d 78 7b 66 d57
FIXUPS: 6b3fd 49 24 22 2f fffffcf9 c8 27 fffff8ef 10 57 11 1f 3f 79 73
FIXUPS: 6aec2 9d 176 4c e ffffec3b 12 10 26 57 11 1f 4b 1c 45 2064 3d 14
FIXUPS: 6c017 b0 18 21 22 22f 1a 1a 23 f 99 16 61 36 11 19 1f2 c9 fffff4dd
FIXUPS: 6be1f fffffbbe c8 77 39 fffffb9e 13b aa fffffc71 94 19a3 7b c0
FIXUPS: 6d133 23 5b 3b 24 5f 55 60 2b df 19 1b 9 18 9 14 117 fffff756 78
FIXUPS: 6cda9 25 fffffb16 7c a9 7b a3 fffff397 2d 26 ffff7356 69 24 16
FIXUPS: 6331a 1f 16 16 1a 62 36 fffff7d5 1b c e 42051 21f 14 14 14 14 14
FIXUPS: a4f09 14 14 14 14 fffc7f78 9 12 9 8 ffff6a6c 18e 1b7 d d d 273
FIXUPS: 6414a ffffec64 1c f 2b 2f 24 1e 38 26 11 35 78 1a 41 2f 41 28 34
FIXUPS: 630eb 16 28 22 8b 27 23c5 3b c 25 ffffedd8 15e 17 3bf f4 ea 65
FIXUPS: 64bbb 1a 40 59 2a 1b2 3e 1a 40 45 6c 24 64 23 75 27 24 ffffe773
FIXUPS: 63900 4f d 29f2 46 74 f 1c 78 77 2d d 11 f fffff1a0 7a 29 53 24
FIXUPS: 65869 fffff926 3c 4f 28 a3 24 83 8b 22 26 f 15 4f 8f 38 5b3 c2
FIXUPS: 65c31 13 7c 47 4e 62 dd 2b 53 18 32 1c 34 21 14 87 2d d 11 16 83
FIXUPS: 66192 56 d 17 25 25 f 8a 32 ffff3117 f 7a 3b b 22 1c 6b 9 75 26
FIXUPS: 596ac 3f 2d 28 32 ce53 1e 37 fffff2d3 41 30 27 20 12 21 98 13 35
FIXUPS: 65af9 14 13 ffff7698 38 26 26 26 1c 35 36 1c 31 35 1b 9 1c 4e 83
FIXUPS: 5d4e9 19 c7 9b 43 2c 43 ffffbbd6 16 14 1d 1a 12 1d 51 36 36c8 26
FIXUPS: 5cb41 1f 42 58 1b 1c 40 58 17 1c 2d 4d 2d 2e 25 36 57 25 36 5a
FIXUPS: 5cf63 3b 89 2a 2a 1f 2b 34 61 28 fffff2fe 32 2e 37 1d 58 15 1d
FIXUPS: 5c5cf 18 25 69 15 1d 11 28 76 15 1d 11 20 4a 1d 3e 2c 42 2a 13
FIXUPS: 5c95b 5f 86 5e ffffeed5 2d 40 22 14 14 8f 2a 12 89 69 3d 5d 8c
FIXUPS: 5bd1e 10 1d b0 b1 56 69 4c 4c 5d ab 14 16 4c 23 209 7c 2b fffff019
FIXUPS: 5b47d 1d 11 1c 2c 40 15 1d 15 1d 11 f 62 2c 1e 29 33 47 12 1b 14
FIXUPS: 5b75b 3b 11 c 39 30 47 56 3d 3d fffff631 22 23 2e 3c 22 64 21 15
FIXUPS: 5b0ec 11 26 1b 20 21 19 c0 29 1d 38 46 15 1d 11 24 4d 15 1d 11
FIXUPS: 5b42d 1f 11 fffff531 31 26 4c 21 1d 24 4f 47 26 25 1d 11 18 25
FIXUPS: 5abfc 11 18 23 26 23 22 23 22 17 3e 51 44 34 51 61 51 fffff373
FIXUPS: 5a2b6 2a 60 30 20 6d 7f 22 2b 34 2e 62 31 9 37 2e 68 2f 3d 10 1c
FIXUPS: 5a753 30 26 26 26 1f 58 96 1f 4b fffff326 2a 2c 1f 3d 1c 31 c 2d
FIXUPS: 59df7 29 12 1c 2d 34 15 1d 11 1c 1f 2b 30 95 1f 2b 30 28 62 22
FIXUPS: 5a16e 5f 95 554c 92 9 43 10 c 1a 1e 9 64 9 ffff9ed4 63 16 42 39
FIXUPS: 59942 2f 2b 2b 25 42 4c 22 3e f 94 2c 28 30 1f 42 541d 25 2a 25
FIXUPS: 5f118 15 28 2a cd 1f 19 3a 30 3d 21 19 15 27 3c 48 29 c 13 d 3c
FIXUPS: 5f4e0 19a 38 1e 56 50 2c ffffee23 48 6f 52 c 51 c 99 120 29 20
FIXUPS: 5e970 6f c3 157 4f 20 c9 11 29 1d 8c 4b 19 73 30 22 13 1d 21 66
FIXUPS: 5f029 ffffea67 1f 15b 14 59 5d 2a 48 16 5c 9 b4 29 64 c8 88 2a
FIXUPS: 5e14e 2a 37 2a 36 2f 3b 7a 36 59 26 25 d8 d2 24 1dfb 88 4a 69 26
FIXUPS: 6055d 2b 14 b2 c5 1a 1f 34 36 af 10 1c 42 fffff285 f0 f0 8b e2
FIXUPS: 5d766 bd 2e 3a 3c 6a 70 3c 88 3bc0 39 46 2f 16 30 2a 1b 26 40 14
FIXUPS: 617f5 39 ffffe6c6 14 4f 14 13 a8 8c 6b 62 19 69 19 69 22 19 14
FIXUPS: 602f6 4d 36 bd2 36 1a 1a 1f 5c 6c 16 60 b5 24 17 14 1e 19 22 4c
FIXUPS: 612fe 79 14 3c 43 9c d 11 d 53 16 4e 1b 4f 20 533 c ffffeee2 5c
FIXUPS: 60b01 46 75 14 1e 19 20 16 11 1a 39 11 37 28 19 25 31 25 3f 3b
FIXUPS: 60e37 24 1b 13 14 1d 2b 2a ee8 29 18 4c 55 35 87 27 10 b9 4b 5a
FIXUPS: 62162 65 b1 28 fffff973 10 e 10 e 10 e 10 fffffbea 2a 25 25 114
FIXUPS: 61a16 39 33 39411 5d 1a fffffcbe 2b fffc7e59 ab fffffd0e e c 1e
FIXUPS: 62847 17 fffffa70 148 1a 4f 4e 106 52 12 1a 2c 58 87 2d 25 9 c
FIXUPS: 61d4f 10 7d 3953e 35 1d 30 c0 a5 85 1c 2d 56 50 27 1f d 48 1c 34
FIXUPS: 9b788 3e 34 23 6c 41 82 32 2b 79 8 68 fffff2ce 6b 77 1337 43 98
FIXUPS: 9c31a 2b 19 17 50 4a 1e 53 32 45 11f 36 de ffffe810 a 13 c 3f 3d
FIXUPS: 9b02c 19 17 ec 59 2d 66 1b 27 4f 16a7 fffff1a8 31 3e 2d 31 86 1e
FIXUPS: 9bca3 17 52 18 32 32 17 1e 48 4f 40 27 1b 2c 42 1c 39 1d 42 2a
FIXUPS: 9c06a 56 4e 32 e09 38 43 1c 15 b4 2e 2b 1d b0 2d ca 5e 41 21 c4
FIXUPS: 9d475 30 37 31 17 19 18 33 33 fffff200 19 12 29 2d 10 56 1293 22
FIXUPS: 9db90 45 19 19 26 fffffa6a fffff2f6 41 19 18 29 25 31 29 2b bd
FIXUPS: 9cbbf 22 30 3f 26 17 49 2b c3 1a 1c 2e a9 45 171d 42 98 1c 23 19
FIXUPS: 9dca5 14 16 9 77 81 11f 10d 80 fffff6d2 ad 2c 2a 22 2c 23 22 13
FIXUPS: 9d917 14c 11 c 22 13 1e 22 2095 60 18 1b 13 3e c fffff0b4 fffffa7c
FIXUPS: 9e7bb 11 c6 ca cd 14 29 15 15c fffff4fb 2f 2b 62 19 66 33 1b2 44
FIXUPS: 9e46e 46 65 22 37 f81 7f 4f 20 76 7c 22 3d 57 19 2b 18 1a 1a 25
FIXUPS: 9f856 18 16 8 5c 57 1d 18 2e 18 25 e 1d 84 18 4b 18 c06 4e ffffe669
FIXUPS: 9ee23 c1 18 3e 14 25 23 10 3e 44 41 14 21 25 2f 58 19 12 3a 97
FIXUPS: 9f295 80 7c 22 3d 57 2b 19 3f b55 12 5a 60 45 28 57 19 32 5b 36
FIXUPS: a02a3 55 22 3d 57 19 2b 8 32 28 52 26 56 1d 20 1c 2d 40 46 25 5f
FIXUPS: a1173 42 3b 54 22 1a 42 31 7b 56 54 54 62 9e 2c 1b 72 3d 22 39
FIXUPS: a079d 17 2a fffff526 40 13a 6c 45 28 47 41 27 aa8 ad 65 54 72 c
FIXUPS: a0cbe 19 25 19 41 8f 2c 1b 38 54 22 1a 42 1b 2b 2c 19 25 19 41
FIXUPS: a1082 20 26 26 33 23 14d4 52 2b 56 6e 20 34 48 fffffc06 12 10d
FIXUPS: a1ef5 6a 167 141 19 12 23 2b fffff4fa 210 108 19 12 23 3c ffffed7e
FIXUPS: a08bc 3a a3 38 9d 2b90 5a 40 58 48 fffffa06 fffffeec 2b fffffea3
FIXUPS: a2f23 fffffea3 39 12 fffffc6a 2b d1 e9 fffffbe1 20 10 38 95 3a
FIXUPS: a2991 12 18 59 19 c fffffb34 30 36 1be2 3a c fffff5f6 4c 19 12
FIXUPS: a3883 48 c 3c 4d 31 52 1b 1b 2b 2c 14 22 56 2e 18 2b 11 c fffff7c0
FIXUPS: a33a1 3b 19 1a0 25 cf7 52 2d 18 36 fffff893 4c 19 12 1b 48 c 45
FIXUPS: a3d92 25 22 1b 2b 29 b 22 56 a9 18 1c 1f 18 4b 18 c9 22 25 fff5e592
FIXUPS: 2734 11 f 47 f 36 c a1fe3 35 31 a0 3f b7 fffffd48 71 fffffdae 12
FIXUPS: a4553 65 bf 26 fffffd85 90 2b 16 fffffebf 4b fffffe52 19 17 10
FIXUPS: 1e88 19 4b 22 25 44 14 13 71 15 11e d 14 e2 1d c8 27 1f 1d 65 32
FIXUPS: 2434 f 20 2e 16 85 b5 2e 11 61 49 ffffeee4 2b 15 29 3c 16 dd 12
FIXUPS: 196e f 47 18 f 27 21 61 96 1e 15 20 17 a 27 f e0 33 33 19 66 a5
FIXUPS: 1e4e 12 3672 1b 5b 35 c 1e c ffffba67 64 1e 2a 25 f5 9 26 1d 43
FIXUPS: 128d 15 35 c 10 23 a3 8e 2c f f 43 17 1b 94 367c 1e 31 15 47 4c
FIXUPS: 4d3d 13 2f 41 5 7e 13 c 4b 11 c 4b 64 22 36 36 34 c 2a 31c 13 24
FIXUPS: 53d2 c 39 41 fffff2e4 2e 11 a 67 28 37 28 21 18 18 c 1a e 58 1e
FIXUPS: 49c5 12 14 25 43 12 14 25 43 12 14 25 41 14 41 1e fffff420 29 1e
FIXUPS: 4055 2a 34 e 9 1a da f cf 28 1a 8b 6a 9e 5c 39 1d 9f 14 36 c e
FIXUPS: 4632 14 29 29 70 a 16 fffff420 3a 1a c 3f 1a d c c 2a e 38 1b 10
FIXUPS: 3cd9 2d 9 13 32 16 17 c 12 1d 32 28 5d 17 2c 35 42 90 fffff626
FIXUPS: 35ef c 2c 2c 134 30 3b 25 85 34 12 2e 24 12 28 1c 24 12 28 c 11
FIXUPS: 3a1b 28 23 24 12 28 15 e 24 12 fffff496 e 1f 9 78 70 c 6f 67 47
FIXUPS: 324f 6f 6e 65 1e e c c 2e 2a 3b 1f 16 3e b 31 3a 17 22 10 26 c
FIXUPS: 2827 25 25 26 73 fd 9 18 8f 35 3c 46 58 70 1a 6f 4d 4a 42 2f 27
FIXUPS: 2e33 22 22 4b 10 10 8 31 c c 21 86ac 62 15 15 a9 20 128 137 1c
FIXUPS: ba73 15 15 ad 1a f5 13 ffff99de 26 18 19 17 4e 11 28 7f 3b 2e 25c
FIXUPS: 5aa0 13 26 63 4de8 4b c 18 29 8 9 18 71 34 ce 14 130 6e 48 33 3d
FIXUPS: adde e7 3e3 44 18 54 17 13 47 29 5a 48 2e d c ffffed7c b8 23 42
FIXUPS: a381 35 16 15 1e 26 16 15 31 47 15 1e 32 12 21 26 17 15 1f 54 c
FIXUPS: a65f 51 1a 51 20 44 177 fffff227 70 3c 20 91 98 21 36 1a 18 1f
FIXUPS: 9dde 1a 2a 24 5d 35 35 37 1a 26 1d 50 71 28 28 38 10 4e 9f f 24
FIXUPS: 92b8 16 e 17 10 24 23 4e 18 d b3 16 fa 16 140 e2 43 1b 92 17 13
FIXUPS: 98e5 13 13 13 13 10 46 101 38 2b c fffff127 12 41 b4 23 4a 12 23
FIXUPS: 8e1f d 31 20 20 29 d ec 49 2c 15 16 24 19 1d 29 d ff 17 16 1c 24
FIXUPS: 9277 20 ffffec69 65 9 48 97 27 11 23 14 119 1e 88 38 40 36 27 5c
FIXUPS: 84a1 2e fe 95 3b 31 9 6a ae 209 84 a8 10 1d 15 ffffe5ee 7a 10 1e5
FIXUPS: 73d8 1b 61 53 67 8 46 a7 ce 8a cd 31 9c 4e d1 35 51 1cb 58 1a 19
FIXUPS: 7d8a 16 11 c 1a 63 9f ffffea8d 2e 26 a3 5a 82 28 d 3d 1d 21 48
FIXUPS: 6c42 a7 b0 62 82 29 3d 12 5f 8 23 2a 3a 1e 2d 45 c d 5b 2a fffff0b5
FIXUPS: 623e 3f 15 33 15 27 3b 1c 8 3f 1bd 26 38 26 2e 14 26 32 5a 4e 5a
FIXUPS: 67c4 26 4e 17 38 47 17 3b 22 d 5652 46 1d 14 55 a 23 1b ffff9b6a
FIXUPS: 5c28 1c 5e 14 149 24 49 91 17 8 2b af 41 47 52 15 14 55 a 17 c
FIXUPS: 618c 20 6f88 15 c 15 c 15 c 15 c 15 5c 36 25 34 1e 1a b6 26 54
FIXUPS: d435 36 c 1a c 1c c 23 ffffea04 34 49 10 14 b44 14 a 1e 53 86 18
FIXUPS: cc28 f 10 9b 3b 13 a5 3b 13 114 3a 4a c 21 9b c 15 c 15 c 15 c
FIXUPS: d107 c 15 fffff1a5 3d 2b 1a 16 5 47 5 5b c c e 10 c 17 6b 92 34
FIXUPS: c65c c8 55 8c 5c 81 79 27 7d 23 33 9 13 2b 50fe 50 14 9 1c 9 39
FIXUPS: 11c90 14 9 46 3a 9 20 14 9 4d 9 e9 105 dd 1e 3b 1e c0 1e ffff9fb5
FIXUPS: c1bf 42 27 42 30 527e 13 17 17 17 17 17 17 17 a7 e 97 1b 3c 12
FIXUPS: 11789 1d 26 30 1a 23 12f 32 4c 29 1c f 5d 63 4e 35 14 fffff27b
FIXUPS: 10e2f 11 9 d b 14 9 23 11 9 13 13 21 17a 32 2d 31 25 13 1f 1b 48
FIXUPS: 111d2 10 15 43 104 8d 7c 25 45 fffff4b1 17 33 84 31 33 2c 1e 11
FIXUPS: 10b17 2f 52 1c 16 c0 32 14 9 37 2c 14 9 1c 2c 9 d b c 9 d b 14
FIXUPS: 10444 12 b c 9 38 12 b c 9 38 57 24 1d 2a 11 91 17 33 47 16 40
FIXUPS: 1076c 23 17 32 4b 2e 9 23 11 9 fffff957 b 21 14 9 23 11 9 11 19
FIXUPS: 102b2 1f 11 b 13 14 9 23 11 9 11 b f 14 9 23 11 9 d b c 9 fffff99c
FIXUPS: fdd0 18 2b 26 16 69 b 14 f 9 2a 1c 11 3e 5d d 14 f 9 2a 1c 11 61
FIXUPS: 10111 16 48 18 13 17 13 17 fffff5b1 1c 1d 65 17 1d 26 1c 1d 19
FIXUPS: f8f2 161 16 79 9 26 29 9 f 26 65 22 3f 19 28 16 4b 14 19 17 12
FIXUPS: fd94 fffff5e5 3e 19 14 9 23 11 9 29 25 14 2e b 18 79 9 52 9 29
FIXUPS: f608 14 3c b 18 1e 9 1b 25 11 17 16 2f fffff7d7 23 11 9 11 90 2b
FIXUPS: f045 7b 34 14 9 3e 1f 14 9 3e 2c 14 9 23 1f 26 9 23 11 9 11 b 5f
FIXUPS: f35c 14 fffff524 9 49 51 19 12 31 2c ba 2d 14 9 3e 25 2b 9 23 96
FIXUPS: ec1c 11 90 2b 16 a8 2b 6b 34 14 9 3e 2c 26 fffff4bf c 2e 9 1f 11
FIXUPS: e458 11 65 21 14 9 3e 19 14 9 23 11 9 7d d9 2b 16 59 12 40 9 23
FIXUPS: e843 14 9 23 fffff581 24 c 1a 19 2f 80 23 7b 17 16 31 1c 16 1f
FIXUPS: e0ff c 21 30 28 114 30 14 9 3e 28 14 9 23 2c 9 11 fffff5ed 2d 2f
FIXUPS: da27 23 36 12 15 9 2a 25 11 17 6c 2b 11 9 2a 25 11 17 f 11 9 93
FIXUPS: dd22 33 29 1e 11 28 1e 5a34 84 39 fa 5b c 7e 21 ffff9a66 9e 16
FIXUPS: d614 15 b 3e 1e 16 12 28 21 1e 17 2a 30 25 16 e9 25 11 1d e 88
FIXUPS: 13150 49 c 32 4a c 22 3f c 26 24 3c c 81 c 33 4c c 4f 13 6d c 2b
FIXUPS: 13589 c 46 c 22 13 3a 158 5e fffff225 c 4c c 49 c 49 c 49 c 6d
FIXUPS: 12c2c 3e a9 2c 15 4b 67 26 c 49 c 49 c 49 c 49 c 2c 111 24 57 fd6
FIXUPS: 1413c 3a c 49 c 46 c 54 3c 41 29 57 1b 12 13a c 3d c 53 c 2b ffffe029
FIXUPS: 12716 4b 145 a6 31 26 f 2a c 120b 21 c 12 21 c 12 21 19 13 25 57
FIXUPS: 13d5c 1f 13 3a c 49 c 46 c 2c 6f 28 20 3e c 25 27 73 1d 8a 3027
FIXUPS: 17151 5d 87 47 109 8c 36 13 33 25 52 14 14 13 13 1d 16 13 13 19
FIXUPS: 175cf f 1a 1a ffffc517 8 52 1a 17 21 c 30dd 16 14 1d 1f 13 2f 17
FIXUPS: 16d95 2c 26 e 2a 16 b 6f 28 b 2e 28 2f 31 1d 63 1d 22 c 25 25 30
FIXUPS: 170e8 13 fffff476 4d 37 18 27 39 18 2a 1f a0 18 2c 13 1b 10a 19
FIXUPS: 16938 48 27 13 7b 18 3f 13 6e 18 b4 14 55 1a 14 1d fffff269 29
FIXUPS: 15f31 22 40 13 39 16 13 13 21 29 12 22 47 18 b 29 22 35 21 29 12
FIXUPS: 161f7 b 29 22 22f 13 52 17 2b fffff5b6 14 14 22 b 23 5f 28 b 39
FIXUPS: 15c5f 19 c 1d 18 32 19 1d 18 37 2a 14 19 2a 13 19 1c 1f 41 16 13
FIXUPS: 15ed5 fffff6ee 17 2a b 35 1b 1c 2a b 27 f 13 1e 44 17 44 16 13
FIXUPS: 157fd 44 17 16 13 f 19 44 17 44 16 1b ed 4a fffff7ff 19 c 1f c
FIXUPS: 15319 c 1a 2a b 27 24 19 c 1f c 1d c 1a c 1a 2a b 27 29 1e c 1a
FIXUPS: 1554d 1a 2a b fffff928 28 29 b 28 29 b 28 29 b 28 29 b 27 3d 23
FIXUPS: 150e0 b 44 16 1e c 1f c 1a c 26 48 21 c 1a c fffff7e5 2e 2b f b3
FIXUPS: 14b8d 1f c 1a 2a b 27 1f 37 26 b 28 c 1f c 5f 22 b 1e 1a 29 b 28
FIXUPS: 14e5d b 28 29 fffff7ca 39 c 1f c 5f 22 b 13 1a 2a b 28 2a b 28
FIXUPS: 14890 b 28 2a b 28 2a b 28 2a b 28 2a b 28 24 2fa8 f0 85 6d 18
FIXUPS: 17c1d 3a 18 16 1e 2c 10 1f 3a 57 25 2c 23 4f 8b 2a 63 39 2e 53
FIXUPS: 1815c 3b2 152 ffffbf9e 1a 4d c 673f 32 15 98 1cf 81 1ae 6b 20e
FIXUPS: 1b532 237 160 43 5f ffffbcd7 1a 26 c f 2c 3e c 12 2e c 91 8c c
FIXUPS: 17897 6b 59 76 2910 18 82 58 1cb 4c 15 15 16 11 2e 2a 29 39 43
FIXUPS: 1a7bf 1a 2b 63 29 15 98 16b a1 79 f 2a 2d c2 37 14 58 ffffdd59
FIXUPS: 18ec6 3e d2 15 1f6 456 33 9a 1eb ea 59 15 84 22 14 bd 180 1e 50
FIXUPS: 19dc8 60 9a 1f 1b 33 ec 15 85 14 13e 7e 6624 144 4b 16 53 167 108
FIXUPS: 20d2c 25 167 22d 36 2b 49 1c c 1b 26 28 eb 66 72 1b0 46 24 47 ffff7045
FIXUPS: 18730 90 11c 98 79 6f50 53 153 3e 44 9 4b 60 fd 35 e 178 91 1a
FIXUPS: 1fffa 35 49 44 21 16 35 bf 14 10 5d bb 2c 31 26 3ec a0 61 ffffe799
FIXUPS: 1f045 44 b2 55 34 79 c4 28 34 79 d 11 30 57 47 4a 11c d 17 30 77
FIXUPS: 1f761 56 21 4f 4d 37 23 2b 1a c ffffeb8c 75 1a 1a 1a 1a 1a 1a 1a
FIXUPS: 1e5f0 1a 1a 1a 1a 36 24c 91 11f 42 2e 78 5 74 241 d 4d 3e d 8b
FIXUPS: 1ef81 33 13 ffffef47 11 39 1d 1c 43 1b 2c 1b 77 27 17 9 2a 23 14
FIXUPS: 1e1ec 17 9 2b 13 36 35 5d 33 6a 2a 8 37 44 b 3b ffffeff1 17 18
FIXUPS: 1d4da 28 18 3b 1c c2 56 ad 39 12 12 3a8 11f 22 28 30 2b 33 19 16
FIXUPS: 1dd71 11 11 7d 1b 22 10 2c 36 ffffeccd 5 3a 3a 3a 24 2e 30 13 17d
FIXUPS: 1ce91 2b 14 6e 28 18 18 18 c4 41 63 35 b8 6d 37 33 2b 48 f 1b 9e
FIXUPS: 1d47b fffff285 1a 9 1a 9 59 24 24 24 31 2f 9 1c 9 1c 9 1c 9 41
FIXUPS: 1c955 2f 9 19 9 1b 90 2a 9 20 9 61 24 fffff3fd 17 15 eb 2b 13 c4
FIXUPS: 1c167 16 16 16 16 16 16 de e 36 2f 9 19 9 b8 1d1 2f 9 19 9 2a 31
FIXUPS: 1c6d4 9 1a 61eb 291 1b ffff8ebb 83 3a 10b 51 e 44 43 53 46 9 19
FIXUPS: 1bdbb 19 9 19 9 19 9 19 9 3a e 16 2a 15 17 15 17 5de4 1f 2a 16
FIXUPS: 21d8e e 22 1d 37 1d 38 4a 38 38 38 38 2f 9d 13e 6a b3 108 d 15
FIXUPS: 225a5 17e d 20 19 1d 1f 34 595 f f 11 5d 5d 87 c 1c c 17 d 10 144
FIXUPS: 23093 ffffe678 10 10 19 17 b5 1c 5c 17 22 17 da 8 228 c8 1f 1f
FIXUPS: 25308 18 24 14 e 150 20 53 16 d 25 12 13 ffffdb2f 81 12 d 1b 88
FIXUPS: 232b7 9 38 1c 3a 26 fffff833 26 24 1c 14 9 86 231e 15 15 f 1c 12
FIXUPS: 2504b 26 14 d f 39 17 17 17 16 f 2b 30 30 12 17 17 1d f 1c 12 1d
FIXUPS: 2529d 23 1c 15 fffff9b8 16 15 15 15 15 16 f 1c 22 12 15 14 15 14
FIXUPS: 24de9 35 12 16 16 f 21 2c f 21 2c 17 f 2c 15 1f 21 fffff238 22
FIXUPS: 2422e 22 d3 75 2d 7d 19 21 49 d d 19 69 41 3f f 43 36 4e 21 12
FIXUPS: 24729 44 1a 21 f 3f 5f 428 16 ffffefc0 74 2d f 27 1a 21 f 27 1a
FIXUPS: 23dce 22 1f 19 1f 19 75 14 12 44 99 2e 33 22 22 22 20 a 16 32 23
FIXUPS: 241c3 fffff4d6 28 28 28 28 28 28 28 28 82 60 25 24 19 24 19 22
FIXUPS: 239a6 31 ae 23 25 44 26 21 24 23 16 16 22 22 22 471a 1f 13 16 14
FIXUPS: 283b4 71 19 ffffaf8c 22 22 22 2a f 27 1a 21 f 27 1a 21 f 31 11
FIXUPS: 235a7 21 f 31 11 1a 19 25 451a 36 4f 33 63 10 22 1e 18 18 18 18
FIXUPS: 27d6e 2b 6c 201 6d a 23 17 76 10 bf 20 1f 1d 32 1b 1b 23 37 19
FIXUPS: 273f5 18 11 12 44 1c 29 67 11 2f 1c 18 11 e1 c 8 c e c 39 40 43
FIXUPS: 277b0 1f 1f f5 1c 9f a5 86 59 56 fffff10e 1a 29 1b 1a 21 31 25
FIXUPS: 26d9a 15b 1b 10 f 1b 4f 58 c1 f 25 25 30 f 25 10 94 22 4b 51 1c
FIXUPS: 27316 83 11 fffff383 49 17 16 16 16 16 17 16 8 a 57 14 31 44 2d
FIXUPS: 26945 27 27 7e 36 37 2d 1f a 8d 1d 2d e f 21 78 fffff3ea 2e 43
FIXUPS: 260d6 34 37 24 76 57 3c 1b 2b 53 c 39 c 47 9 45 b8 d d 87 8 39
FIXUPS: 2658f 1a 8 1d 5e 8 1d fffff2a7 37 50 22 31 44 7e 8e 55 2f 24 c
FIXUPS: 25bf0 1d 4a 4e 15 c 25 29 19 32 66 19 2d 6a a0 15 19 31 3c 52 383f
FIXUPS: 2984a 3d 19 32 19 19 19 28 19 19 19 3c 4f 176 c ffffba2b d 1e d
FIXUPS: 25621 7e 13 1e 1f 16 3f 1c 34 19 4f ba 3908 19 16 1b 8e 32 c5 30
FIXUPS: 29420 18 51 ea c 35 9 54 30 13 89 12 12 12 3c 9 21 12 12 12 45
FIXUPS: 297fd 20 9 fffff340 14 50 5b 10 70 27 22 2e 46 e 7b c 12 3b f 25
FIXUPS: 28ee8 2a 17 74 12 6f 6b 21 25 50 1c 19 16 1b 1d 634d 14 3b 1b ffff8f29
FIXUPS: 28551 15 20 27 e b0 c e f f 3a e e 8 e 10d 15 2e 74 e 47 23 50
FIXUPS: 289f6 10 117 e 61af 25 25 25 25 25 25 24 a1 f 180 71 28 40 80 36
FIXUPS: 2f202 b9 7b 35 1c 25 43 16 9 4a 25 f 8 16 25 f fffff168 59 21 d1
FIXUPS: 2e7c6 49 22 31 2a f 59 10 15 24 1b 1b 19 68 c 8 1f d 8 4f 72 1b
FIXUPS: 2eb29 17 26 13 2e aa fffff083 1b 121 35 49 27 28 35 2e a8 47 6c
FIXUPS: 2e0dc ae 25 4d 5d a6 32 9c 1b 5e c 66 2c 21 4a 1b 1b 1b 3d 5d ffffedd0
FIXUPS: 2d460 20 13 45 5f f 146 35 56 71 d6 32 53 30 4b 2c 2b 44 88 1a
FIXUPS: 2dad4 15 26 13 16 f 1b 1b 10 67 47 ffffed40 53 4f 3f 48 c ac 2c
FIXUPS: 2cbc0 38 98 15 1a 2b 29 2b 65 55 14 10 f 14 18 18 18 10 10 42 58
FIXUPS: 2cfe1 2b0 18 ffffeb7f c d2 c 91 4d 81 4b c 77 26 10 1d 48 1a 7a
FIXUPS: 2c2b0 7e 16 6f 4b fe 51 b9 51 42 c ec d9 26 32 65 ffffee5f 33 19
FIXUPS: 2b7f9 19 1f 15 36 17 16 1d 22 1c 15 36 15 36 15 41 9 19 65 63 c
FIXUPS: 2bbb8 2d 1b ba 83 c 5e 2f fffff302 15 1c 8 5 42 36 ed 46 8e 1f
FIXUPS: 2b39f 9 8d 27 2f 1b 3e 9 64 15 68 15 68 15 36 15 36 1c 27 15 36
FIXUPS: 2a5e3 35 36 49 2f a0 46 86 2e f 16 9a 37 62 e1 16 4c f 4d 93 be
FIXUPS: 2ad0f 189 1b 47 36 79 1b 16 63 56 1b ffffed62 19 32 af 7e 9 25
FIXUPS: 29fcc 19 16 16 19 16 162 5 83 37 19 13 a6 a7 a0 21 8 15 72 f a
FIXUPS: 2a5a6 f a 12 778c 1a b 52 16 12 b 6c b 24 17 16 b 45 f 3d 19 e
FIXUPS: 29c1a 3a 1a 4e 10 f 25 15 40 9 17 5b 14 d 7716 6a 33 b 57 25e 11a
FIXUPS: 319bf b 8e 1a b 24 17 12 b 1c b 39 1a b 23 1a 3a b 37 1a b 44 b
FIXUPS: 31d36 b fffff128 1c 2f b 1c 5e 21 57 b 34 3a 35 1a 86 3c 23 4c
FIXUPS: 311d4 41 43 a1 2c 19 22 29 38 43 3d 28 39 36 24 ffffec18 24 30
FIXUPS: 302ac 7e cb 28 3f 37 2d d2 2d a4 e 12 4a 1f 4a d0 31 b 126 17 213
FIXUPS: 30bdf c 30 33 43 45 b8 95 ffffedbb 8 26 45 8 21 2b 1a 2b b 29 21
FIXUPS: 2fd65 41 b 53 e 9 10 1f 60 66 f f 25 24 51 3c 3f b 8c b fffff573
FIXUPS: 2f674 2a b 2a 8 72 1b 27 76 b 61 19 13 22 25 36 17 72 27 1a 1e
FIXUPS: 2fa13 29 45 54 1e 1f 11 64 2a 1a 55e4 48 20 42 34 19 1e 19 214
FIXUPS: 355e9 4e d4 46 41 79 74 e1 55 61 c 67 10 15 2d 12 28f 48 2b3 ffff9542
FIXUPS: 2f5e5 1e b 4c3e 17 1a 8 16 1a 8 b2 26 57 6b 72 f 1e4 106 119 48
FIXUPS: 34a00 21 83 2b 1a 8 83 1d c2 9f 42 1d 5 276 ee ffffe7ce e4 83 20
FIXUPS: 33a25 29 35 20 16 29 d 70 8 9c 1f 48 10 10a 1c 51 10 8 f 22 8d
FIXUPS: 33f0f 22 1a 8 239 c 57 ffffef45 41 23 73 34 54 35 3a 10 40 1a 2b
FIXUPS: 333c2 1f 17 3c 19 32 f 40 4b 5b b5 4d 35 15 13 38 16 e0 30 35 ffffeb79
FIXUPS: 32409 48 2c 2a 48 af 37 90 18b b6 2c 2c 30 45 1a4 1a 14c 99 1d
FIXUPS: 32d46 5f 79 e3 19 2d 79 19 42 23 a7 3f 3c56 2a 12 ea 4b ad 12 55
FIXUPS: 37022 74 8c 33 66 20 1b 1c 12 5d c f 31 121 4e 4a 26 8 6f ffffac13
FIXUPS: 3222e fd 73 2c 4261 16 15 16 15 16 15 15 15 15 15 15 15 15 15 15
FIXUPS: 3677e 16 15 31 2e 36 c6 a2 5e 2f 45 32 2d 2b 12a 9c 8f38 1a 10c
FIXUPS: 3fd2d 20 5f 8 ffff788e 32 4b 2d ffffe9dd 30 5c 2d be 1b 22 18 7e
FIXUPS: 36358 d5 2a 34 46 2e 17 31 8 23 8f 15 873d 3f a2 281 b 27 18 2c
FIXUPS: 3f146 40 28 b 2e 4b 94 2c 2a 20 7e 55 11 60 7d 84 b 20 16 12b 1dd
FIXUPS: 3fa9d 84 38 ffffe902 b0 29 17 e e 1b e 1b 2b 4d 15 110 2b 37 f
FIXUPS: 3e807 66 54 7e 3c 47 16 3a 15 53 1c 5f 56 5d 12e 41 fffff09c 30
FIXUPS: 3ddf2 25 31 66 30 21 3c 26 66 58 f 41 f 4e 32 f 4e 31 f 2a 4e 70
FIXUPS: 3e292 3e 19 39 79 24 24 26 fffff21f 22 c 28 1e 22 60 59 60 3b f
FIXUPS: 3d841 f 4f 22 3e 22 7b 25 85 3c f 20 f 20 f 50 68 3b 99 68 68 fffff03c
FIXUPS: 3cdb1 18 10 28 f 20 f 20 f 3d f 3e 1f 73 1e 3c d1 1d 98 b2 62 26
FIXUPS: 3d2ea 7c 3c 5b f4 8e 14 73 1d ffffeab0 12 b 29 12 b 9a 192 29 12
FIXUPS: 3c3a8 bd 92 b2 16 37 25 5f 25 107 3f 48 1a 136 53 25 118 5c 81
FIXUPS: 3cc27 52 ba ffffe7c1 2f d 27 21 64 a 8b 62 f 27 1a9 f 60 31 f 28
FIXUPS: 3ba64 25 45 e5 30 e7 4f 4a c5 a3 5e 66 3a 40 7f ffffeac9 23 37
FIXUPS: 3abd5 7a 85 18 35 7f b1 2b d 39 51 2b 1c e3 4f 88 33 178 15 58
FIXUPS: 3b348 35 22 3e 1f 13 30 8c f ffffec1e 2b 42 13 20 6b 44 7e 105
FIXUPS: 3a3f0 b1 1a f 25 65 1a 16 26 116 2c c5 f 64 29 17 15 1a4 4d 32
FIXUPS: 3aafa 5 38 ffffe98c 1a 32 1e 31 36 1c 20 19 7a 9d 124 2f 30 f 2e
FIXUPS: 398ed 24 68 194 94 18 65 18 c4 161 11c 89 1e 3a 55 1e ffffea1f
FIXUPS: 38ba4 1b 25 3d 42 4a 25 70 f 21 de 122 9e 3d f 15 64 25 25 27 c2
FIXUPS: 3922b 37 7e 64 21 72 32 26 32 1e ffffe8c0 4a 1b 6a 292 a7 40 13d
FIXUPS: 38304 82 f 1d 20 de 30 25 1e 104 5 4e 30 73 f 52 14 30 78 fe 25
FIXUPS: 389a5 48 1f ba38 6a b 25 b 28 12e 3c 11 2d 26 15 18 4d 5c 22 27
FIXUPS: 378e4 25 b 76 1d 10 67 17 35 15 38 5f 2b 132 8e bd3e 147 15 26
FIXUPS: 43bf0 4d 25 2c 28 2c c 8e 22 34 22 4c f 8 2d f6 f 41 2d 94 5c 11d
FIXUPS: 44216 5b 36 a9 b de ffffea32 49 39 41 33 16 3b 54 2b d 5f ad 7
FIXUPS: 43190 4a 8 77 217 23b b 25 b 28 b 26 12c 22 30 26 15 d4 64 ffffea19
FIXUPS: 4248f b3 5b 4e bc 5 2b 11 10 36 25 70 e 5e 5 18 d 6f 7a 45 186
FIXUPS: 42b4e a9 c 13 f 14 b9 3d 1f 6f ffffef1f c d c d a 55 a5 57 17 86
FIXUPS: 41f44 29 21 35 18 18 18 12 1a 7b f 19 1a b5 19 3e 127 19 6e 19
FIXUPS: 423f3 ffffefd7 82 a7 13a 21 f 1d 2b 2e 13 4a 66 f 6a 5 39 24 37
FIXUPS: 418b0 5 87 18 8 11 b4 70 c9 2e c 2b e6 24 ffffed89 13 13 13 13
FIXUPS: 40ab1 131 1f c 1b 50 29 75 a7 13a 21 f 1d 2b 21 c 281 17 5f f 1d
FIXUPS: 412da c 2e 5f f 1d ffffee16 2a 88 d 18 30 a6 21 90 18c 47 27 9
FIXUPS: 4062e 49 18 3a 20 72 83 7f 86 59 13 13 13 13 13 13 13 6b 13 7214
FIXUPS: 47c64 c 34 13 13 c 8 f f 5c f 42 17 45 c 16 f 56 12 4d 37 b1 ffff7e4d
FIXUPS: 3fe47 17a 1c 18 16 d 91 ce 6c32 35 a 38 32 12e 83 1e 129 53 84
FIXUPS: 47260 51 ae 116 55 50 1b1 40 b 80 2b 1cb 3d 31 b 9c 15d 11 c e
FIXUPS: 47c37 ffffe671 2a 72 1fb 24 b0 32 1c 1c 77 1f 7a 31 30 21 69 113
FIXUPS: 469ad c3 2e 1c 71 19 33 21 46 84 3f 5f 38 2a 2c ffffe8f0 d3 76
FIXUPS: 45903 257 d6 2f 7a 1d 16 c 2f 3b c 9f f 13 54 1d 55 cb 40 a 38
FIXUPS: 460c1 1c 80 a c 6f 42 42 ffffe806 8c 155 2f 2f 43 34 c 37 15 7e
FIXUPS: 44e51 c ca 31 3a a 13 2a 5d 9e 2b 16 77 39 198 19e 98 18 15 28
FIXUPS: 4564a 520c ffffd7f0 19 d 16 d c d e 11 d 1d 35 36 29 5e 4a 22 29
FIXUPS: 44857 39 2e 13 10 56 41 1a 22 32 1f 29 28 5933 16 b 8 d 1f f f
FIXUPS: 4a404 5 1a 5 13 2d 2a 1f 45 5 5 a 6b 8 21 f 15 57 18 b 9d 17 5
FIXUPS: 4a6fa fffff9df 15 35 1f 25 8 1a f 8 a d d 4d 11 11 f 16 b 1a 24
FIXUPS: 4a2ae 25 8 13 8 5 5 a 36 e 8 9 fffffb92 13 e d e d e d e d e 20
FIXUPS: 49fac d e d e d e 20 e d e d e d e d e d 17 e fffff810 20 2a 59
FIXUPS: 49985 8 14 9 8 44 2a 1d a 14 c a a 48 39 70 40 70 40 73 42 5d 85
FIXUPS: 49e84 12 17 1d 1a fffff5a8 c 8 48 10 39 d 11 19 12 40 34 a 1e b
FIXUPS: 49657 1d 44 2b 11 15 12 20 11 20 1d 1d 1d 96 20 20 20 fffff9b3
FIXUPS: 49283 8 5 5 12 a 11 8 d 20 15 b 8 13 f 8 10 20 1f 8 15 8 13 2c
FIXUPS: 49412 16 14 15 13 c 8 fffff8e4 c6 8 22 b 10 ed 1a 16 b f 16 b c2
FIXUPS: 490b1 22 c 28 d a 52 e 1f 15 b 8 49 8 5 5 a 20 fffff67d e d c 24
FIXUPS: 4897a 15 e 27 6b 15 12 8 21 e d d d 23 14 13 2b 90 44 34 34 1d
FIXUPS: 48c8d 10 86 1b b fffff6a3 23 1b 15 be 68 27 d 2d 23 17 18 b 97
FIXUPS: 486d1 5 5 5 b b 1b 4d a 49 a 22 24 e d c 24 66 45ac 50 3a 3c 5e
FIXUPS: 4cfb0 48 c 4b 16a 179 b8 108 68 15 8c c 1a ffffacb1 a 8 5 18 2b
FIXUPS: 4833e 8 5 18 2b 8 18 23 3f4d 15 15 17 12 b2 3b 5c 90 1e f f 2c
FIXUPS: 4c628 80 75 80 e5 2a 45 a4 35 37 11a 2a 16b c 15 6e 8c 71 c ffffebd8
FIXUPS: 4bae6 10 31 4e 34 24 30 2e 10 1f b7 b 3a 2a 86 b 18 2f 79 1e6 19
FIXUPS: 4c0e0 8c 19 33 20 22 51 a6 f f ffffec38 1d b 7b b 23 c6 46 6d 25
FIXUPS: 4b1f2 88 82 b6 9b 2d 3b c8 32 26 8f 65 aa 7e 2f 1b 3e 86 6d 70
FIXUPS: 4b9f5 10 2d9c 3f 14 8 12d 2ad 27 18 13 10 3a 20 41 bc 8 11 13 ffffbbf6
FIXUPS: 4a9f2 72 6e c2 7c 1d b 7b b 1d 99 29 97 97 29eb 45 88 ab 35c 2b
FIXUPS: 4ddd6 112 ee f 8 169 110 1f 1b 36 84 f8 26 b a 8 1a 19 40 e5 59
FIXUPS: 4e662 b8 1a 1f 2f 39fa f 6b db 80 698 a 1a 57 a 1a cb 21 17 ce
FIXUPS: 52c77 89 25c 4b f1 e9 2a 24 2c 121 32 ffffa4bf 2a 10 15 f 27 37f1
FIXUPS: 51099 16 16 16 16 1b 50 294 6e 1c 14 14 14 14 1c1 24 7d 24 157
FIXUPS: 518bf 580 24 1b 1c 97 15e 23 13 11 10 73 ffffdfe6 2f 1f 1d 1d 1d
FIXUPS: 50201 1d 2c 3a6 18 2f 28 12 21 1f 1f 16 18 5e 643 21 10 30 30 6d
FIXUPS: 50eaf 9 57 24 cf a ffffeab4 67 50 f 8 d0 65 16 28 2a 1c 3a d 35
FIXUPS: 4fe14 1a 2a 9c f 26 40 14 11 17 af c 11 c 13 1d 2b 3c fffff478
FIXUPS: 4f5f7 8b 4b 53 63 1b 17 15 20 a 34 38 27 1d 41 d 30 24 b f 22 19
FIXUPS: 4f9a4 2c b 5d 9 13 9 f 33 3cf2 37 fffffd02 29 37 2d ffffb8f4 b
FIXUPS: 4ee94 27 202 3a f c a 44 64 39 26 4a f 13 1f 9d c 60 2f 45 19 be
FIXUPS: 4f565 16 4fb2 17 17 2f8 44 51 114 ed 120 31 7f 152 8 12 ec 148
FIXUPS: 55065 ff 37 40 39 e7 b2 29 2c 28a 205 146 45 44 ffffdbf7 10 2907
FIXUPS: 56065 a a 43 23 fc 11c 31 11f 43 13 43 2e 22 30 22 30 5d 1e7 ffffd5c8
FIXUPS: 53e0f 1b 20 c d3 72 70 45 3b 13 f1 4a70 a7 242 d 19 d 86 7b ffffca8e
FIXUPS: 55ace 8 3f b 2a 1c 25 1c 19 3b 27 f 80 25 36 44 2d 13 31 3f 37
FIXUPS: 55e87 be 2361 2c 26 f 60 19 11 29 26 f 60 19 26 f 8e 45 8b 76 4f
FIXUPS: 58724 15 2a b 3c b 86 16 1e 31 3a 8e 219 ffffef86 2e b 49 21 c
FIXUPS: 57ccf a9 b 27 3f b 30 3d b 88 1e b 37 b 40 c7 30 2d b 2c b 42 1f
FIXUPS: 58172 f 8 fffff339 b 66 40 b 1e c 1a c 85 40 b 71 b 2d c 1a c 179
FIXUPS: 57932 b 1e c 1a c 45 b 9b 40 b 1e c fffff46f b 58 b 47 c 71 b 16
FIXUPS: 570f6 b 16 4b b 7b 42 b 7e c 2b b 27 40 35 b 39 b 2f c 1e 3a b
FIXUPS: 5691d b2 a9 b 27 40 b 1e 2e b 5f 40 b 1c 36 b 20 5c b f 81 b 27
FIXUPS: 56dd7 40 b 39 b 22 13 22 5f
